
Sensor.elf:     file format elf32-avr

Sections:
Idx Name          Size      VMA       LMA       File off  Algn
  0 .text         000012d0  00000000  00000000  00000094  2**1
                  CONTENTS, ALLOC, LOAD, READONLY, CODE
  1 .data         00000108  00800060  000012d0  00001364  2**0
                  CONTENTS, ALLOC, LOAD, DATA
  2 .bss          0000001a  00800168  00800168  0000146c  2**0
                  ALLOC
  3 .debug_aranges 00000120  00000000  00000000  0000146c  2**0
                  CONTENTS, READONLY, DEBUGGING
  4 .debug_pubnames 000007eb  00000000  00000000  0000158c  2**0
                  CONTENTS, READONLY, DEBUGGING
  5 .debug_info   00000ef6  00000000  00000000  00001d77  2**0
                  CONTENTS, READONLY, DEBUGGING
  6 .debug_abbrev 00000522  00000000  00000000  00002c6d  2**0
                  CONTENTS, READONLY, DEBUGGING
  7 .debug_line   00000c79  00000000  00000000  0000318f  2**0
                  CONTENTS, READONLY, DEBUGGING
  8 .debug_frame  00000280  00000000  00000000  00003e08  2**2
                  CONTENTS, READONLY, DEBUGGING
  9 .debug_str    0000041a  00000000  00000000  00004088  2**0
                  CONTENTS, READONLY, DEBUGGING
 10 .debug_loc    00000506  00000000  00000000  000044a2  2**0
                  CONTENTS, READONLY, DEBUGGING

Disassembly of section .text:

00000000 <__vectors>:
       0:	0c 94 2a 00 	jmp	0x54	; 0x54 <__ctors_end>
       4:	0c 94 a3 03 	jmp	0x746	; 0x746 <__vector_1>
       8:	0c 94 47 00 	jmp	0x8e	; 0x8e <__bad_interrupt>
       c:	0c 94 47 00 	jmp	0x8e	; 0x8e <__bad_interrupt>
      10:	0c 94 47 00 	jmp	0x8e	; 0x8e <__bad_interrupt>
      14:	0c 94 47 00 	jmp	0x8e	; 0x8e <__bad_interrupt>
      18:	0c 94 47 00 	jmp	0x8e	; 0x8e <__bad_interrupt>
      1c:	0c 94 93 01 	jmp	0x326	; 0x326 <__vector_7>
      20:	0c 94 86 01 	jmp	0x30c	; 0x30c <__vector_8>
      24:	0c 94 47 00 	jmp	0x8e	; 0x8e <__bad_interrupt>
      28:	0c 94 79 03 	jmp	0x6f2	; 0x6f2 <__vector_10>
      2c:	0c 94 47 00 	jmp	0x8e	; 0x8e <__bad_interrupt>
      30:	0c 94 47 00 	jmp	0x8e	; 0x8e <__bad_interrupt>
      34:	0c 94 47 00 	jmp	0x8e	; 0x8e <__bad_interrupt>
      38:	0c 94 2b 03 	jmp	0x656	; 0x656 <__vector_14>
      3c:	0c 94 47 00 	jmp	0x8e	; 0x8e <__bad_interrupt>
      40:	0c 94 47 00 	jmp	0x8e	; 0x8e <__bad_interrupt>
      44:	0c 94 47 00 	jmp	0x8e	; 0x8e <__bad_interrupt>
      48:	0c 94 47 00 	jmp	0x8e	; 0x8e <__bad_interrupt>
      4c:	0c 94 47 00 	jmp	0x8e	; 0x8e <__bad_interrupt>
      50:	0c 94 47 00 	jmp	0x8e	; 0x8e <__bad_interrupt>

00000054 <__ctors_end>:
      54:	11 24       	eor	r1, r1
      56:	1f be       	out	0x3f, r1	; 63
      58:	cf e5       	ldi	r28, 0x5F	; 95
      5a:	d4 e0       	ldi	r29, 0x04	; 4
      5c:	de bf       	out	0x3e, r29	; 62
      5e:	cd bf       	out	0x3d, r28	; 61

00000060 <__do_clear_bss>:
      60:	11 e0       	ldi	r17, 0x01	; 1
      62:	a8 e6       	ldi	r26, 0x68	; 104
      64:	b1 e0       	ldi	r27, 0x01	; 1
      66:	01 c0       	rjmp	.+2      	; 0x6a <.do_clear_bss_start>

00000068 <.do_clear_bss_loop>:
      68:	1d 92       	st	X+, r1

0000006a <.do_clear_bss_start>:
      6a:	a2 38       	cpi	r26, 0x82	; 130
      6c:	b1 07       	cpc	r27, r17
      6e:	e1 f7       	brne	.-8      	; 0x68 <.do_clear_bss_loop>

00000070 <__do_copy_data>:
      70:	11 e0       	ldi	r17, 0x01	; 1
      72:	a0 e6       	ldi	r26, 0x60	; 96
      74:	b0 e0       	ldi	r27, 0x00	; 0
      76:	e0 ed       	ldi	r30, 0xD0	; 208
      78:	f2 e1       	ldi	r31, 0x12	; 18
      7a:	02 c0       	rjmp	.+4      	; 0x80 <.do_copy_data_start>

0000007c <.do_copy_data_loop>:
      7c:	05 90       	lpm	r0, Z+
      7e:	0d 92       	st	X+, r0

00000080 <.do_copy_data_start>:
      80:	a8 36       	cpi	r26, 0x68	; 104
      82:	b1 07       	cpc	r27, r17
      84:	d9 f7       	brne	.-10     	; 0x7c <.do_copy_data_loop>
      86:	0e 94 5e 01 	call	0x2bc	; 0x2bc <main>
      8a:	0c 94 66 09 	jmp	0x12cc	; 0x12cc <_exit>

0000008e <__bad_interrupt>:
      8e:	0c 94 00 00 	jmp	0	; 0x0 <__vectors>

00000092 <find_ones>:
int iterations;

//anropa med markning(find_ones(line_array_1));

int find_ones(unsigned char array)
{
      92:	20 e0       	ldi	r18, 0x00	; 0
      94:	30 e0       	ldi	r19, 0x00	; 0
      96:	80 77       	andi	r24, 0x70	; 112
      98:	80 37       	cpi	r24, 0x70	; 112
      9a:	11 f4       	brne	.+4      	; 0xa0 <find_ones+0xe>
      9c:	21 e0       	ldi	r18, 0x01	; 1
      9e:	30 e0       	ldi	r19, 0x00	; 0
		}
		else {
			return 0;
		}

}
      a0:	c9 01       	movw	r24, r18
      a2:	08 95       	ret

000000a4 <markning>:

int markning(int now_value){
      a4:	20 91 6a 01 	lds	r18, 0x016A
      a8:	30 91 6b 01 	lds	r19, 0x016B
	
		
	//Om √§r p√• Tejp, √∂ka antalet iterationer
	if(now_value==1){
      ac:	81 30       	cpi	r24, 0x01	; 1
      ae:	91 05       	cpc	r25, r1
      b0:	39 f4       	brne	.+14     	; 0xc0 <markning+0x1c>
		iterations++;
      b2:	2f 5f       	subi	r18, 0xFF	; 255
      b4:	3f 4f       	sbci	r19, 0xFF	; 255
      b6:	30 93 6b 01 	sts	0x016B, r19
      ba:	20 93 6a 01 	sts	0x016A, r18
      be:	47 c0       	rjmp	.+142    	; 0x14e <markning+0xaa>
	}	//Spara antalet iterationer n√§r g√•r av f√∂rsta markeringen	
	else if(iterations > 0 && now_value==0 && count_2==0){
      c0:	12 16       	cp	r1, r18
      c2:	13 06       	cpc	r1, r19
      c4:	0c f0       	brlt	.+2      	; 0xc8 <markning+0x24>
      c6:	43 c0       	rjmp	.+134    	; 0x14e <markning+0xaa>
      c8:	89 2b       	or	r24, r25
      ca:	09 f0       	breq	.+2      	; 0xce <markning+0x2a>
      cc:	40 c0       	rjmp	.+128    	; 0x14e <markning+0xaa>
      ce:	80 91 6c 01 	lds	r24, 0x016C
      d2:	90 91 6d 01 	lds	r25, 0x016D
      d6:	00 97       	sbiw	r24, 0x00	; 0
      d8:	79 f4       	brne	.+30     	; 0xf8 <markning+0x54>
		time1 = iterations;
      da:	30 93 74 01 	sts	0x0174, r19
      de:	20 93 73 01 	sts	0x0173, r18
		iterations=0;
      e2:	10 92 6b 01 	sts	0x016B, r1
      e6:	10 92 6a 01 	sts	0x016A, r1
		count_2++;
      ea:	81 e0       	ldi	r24, 0x01	; 1
      ec:	90 e0       	ldi	r25, 0x00	; 0
      ee:	90 93 6d 01 	sts	0x016D, r25
      f2:	80 93 6c 01 	sts	0x016C, r24
      f6:	2b c0       	rjmp	.+86     	; 0x14e <markning+0xaa>

		
	}	//N√§r g√•r fr√•n tejp till ingen tejp, sl√• av timer och spara v√§rde i time2
	else if(iterations > 0 && now_value==0 && count_2==1){
      f8:	01 97       	sbiw	r24, 0x01	; 1
      fa:	49 f5       	brne	.+82     	; 0x14e <markning+0xaa>
		time2 = iterations;
      fc:	30 93 7e 01 	sts	0x017E, r19
     100:	20 93 7d 01 	sts	0x017D, r18
		iterations=0;
     104:	10 92 6b 01 	sts	0x016B, r1
     108:	10 92 6a 01 	sts	0x016A, r1
		count_2=0;
     10c:	10 92 6d 01 	sts	0x016D, r1
     110:	10 92 6c 01 	sts	0x016C, r1

	
		if(time1-time2>DELTA){
     114:	40 91 73 01 	lds	r20, 0x0173
     118:	50 91 74 01 	lds	r21, 0x0174
     11c:	ca 01       	movw	r24, r20
     11e:	82 1b       	sub	r24, r18
     120:	93 0b       	sbc	r25, r19
     122:	03 97       	sbiw	r24, 0x03	; 3
     124:	2c f0       	brlt	.+10     	; 0x130 <markning+0x8c>
			//Sv√§ng h√∂ger
			EEDR=0x01;
     126:	81 e0       	ldi	r24, 0x01	; 1
     128:	8d bb       	out	0x1d, r24	; 29
     12a:	21 e0       	ldi	r18, 0x01	; 1
     12c:	30 e0       	ldi	r19, 0x00	; 0
     12e:	11 c0       	rjmp	.+34     	; 0x152 <markning+0xae>
			return 1;
			
		}
		else if(time2-time1>DELTA){
     130:	24 1b       	sub	r18, r20
     132:	35 0b       	sbc	r19, r21
     134:	23 30       	cpi	r18, 0x03	; 3
     136:	31 05       	cpc	r19, r1
     138:	2c f0       	brlt	.+10     	; 0x144 <markning+0xa0>
			//Sv√§ng v√§nster
			EEDR=0x02;
     13a:	82 e0       	ldi	r24, 0x02	; 2
     13c:	8d bb       	out	0x1d, r24	; 29
     13e:	22 e0       	ldi	r18, 0x02	; 2
     140:	30 e0       	ldi	r19, 0x00	; 0
     142:	07 c0       	rjmp	.+14     	; 0x152 <markning+0xae>
			return 2;
			
		}
		else{
			//K√∂r rakt fram
			EEDR=0x03;
     144:	83 e0       	ldi	r24, 0x03	; 3
     146:	8d bb       	out	0x1d, r24	; 29
     148:	23 e0       	ldi	r18, 0x03	; 3
     14a:	30 e0       	ldi	r19, 0x00	; 0
     14c:	02 c0       	rjmp	.+4      	; 0x152 <markning+0xae>
			return 3;
     14e:	20 e0       	ldi	r18, 0x00	; 0
     150:	30 e0       	ldi	r19, 0x00	; 0
	else {
			return 0;
	}

	return 0;
}
     152:	c9 01       	movw	r24, r18
     154:	08 95       	ret

00000156 <decide_maze_mode>:
S√§tter maze_mode=1 om roboten befinner sig i en labyrint, annars s√§tts
maze_mode=0
*/

void decide_maze_mode(int no_tape)
{
     156:	9c 01       	movw	r18, r24
		if(maze_mode==0){
     158:	80 91 70 01 	lds	r24, 0x0170
     15c:	90 91 71 01 	lds	r25, 0x0171
     160:	89 2b       	or	r24, r25
     162:	81 f4       	brne	.+32     	; 0x184 <decide_maze_mode+0x2e>
				if((no_tape==1) && (dist_left_front < 60) && (dist_right_front < 60)) {
     164:	21 30       	cpi	r18, 0x01	; 1
     166:	31 05       	cpc	r19, r1
     168:	d9 f4       	brne	.+54     	; 0x1a0 <decide_maze_mode+0x4a>
     16a:	80 91 80 01 	lds	r24, 0x0180
     16e:	8c 33       	cpi	r24, 0x3C	; 60
     170:	b8 f4       	brcc	.+46     	; 0x1a0 <decide_maze_mode+0x4a>
     172:	80 91 75 01 	lds	r24, 0x0175
     176:	8c 33       	cpi	r24, 0x3C	; 60
     178:	98 f4       	brcc	.+38     	; 0x1a0 <decide_maze_mode+0x4a>
						maze_mode=1;
     17a:	30 93 71 01 	sts	0x0171, r19
     17e:	20 93 70 01 	sts	0x0170, r18
     182:	08 95       	ret
				}
		}
		else {
				if((no_tape==0) && (dist_left_front > 60) && (dist_right_front > 60)) {
     184:	23 2b       	or	r18, r19
     186:	61 f4       	brne	.+24     	; 0x1a0 <decide_maze_mode+0x4a>
     188:	80 91 80 01 	lds	r24, 0x0180
     18c:	8d 33       	cpi	r24, 0x3D	; 61
     18e:	40 f0       	brcs	.+16     	; 0x1a0 <decide_maze_mode+0x4a>
     190:	80 91 75 01 	lds	r24, 0x0175
     194:	8d 33       	cpi	r24, 0x3D	; 61
     196:	20 f0       	brcs	.+8      	; 0x1a0 <decide_maze_mode+0x4a>
						maze_mode=0;
     198:	10 92 71 01 	sts	0x0171, r1
     19c:	10 92 70 01 	sts	0x0170, r1
     1a0:	08 95       	ret

000001a2 <calculate_distance_diff>:
 *                      h√∂ger/v√§nster
 *-----------------------------------------------------------------------------*/
int calculate_distance_diff(unsigned char distance_left, unsigned char distance_right)
{
        // Reglera inte p√• stora v√§rden
        if(distance_left > 60 || distance_right > 60){
     1a2:	8d 33       	cpi	r24, 0x3D	; 61
     1a4:	48 f4       	brcc	.+18     	; 0x1b8 <calculate_distance_diff+0x16>
     1a6:	6d 33       	cpi	r22, 0x3D	; 61
     1a8:	38 f4       	brcc	.+14     	; 0x1b8 <calculate_distance_diff+0x16>
                return 0;
        } else {
                int diff = distance_left - distance_right;
     1aa:	28 2f       	mov	r18, r24
     1ac:	30 e0       	ldi	r19, 0x00	; 0
     1ae:	26 1b       	sub	r18, r22
     1b0:	31 09       	sbc	r19, r1
                diff *= 2;
     1b2:	22 0f       	add	r18, r18
     1b4:	33 1f       	adc	r19, r19
     1b6:	02 c0       	rjmp	.+4      	; 0x1bc <calculate_distance_diff+0x1a>
                return diff;
     1b8:	20 e0       	ldi	r18, 0x00	; 0
     1ba:	30 e0       	ldi	r19, 0x00	; 0
        }
}
     1bc:	c9 01       	movw	r24, r18
     1be:	08 95       	ret

000001c0 <find_index>:
}

// Returns the position of the first one in value (value is 11 bits)
// returns -1 if no ones
int find_index(int value)
{
     1c0:	0f 93       	push	r16
     1c2:	1f 93       	push	r17
     1c4:	cf 93       	push	r28
     1c6:	df 93       	push	r29
     1c8:	fc 01       	movw	r30, r24
     1ca:	c0 e0       	ldi	r28, 0x00	; 0
     1cc:	d0 e0       	ldi	r29, 0x00	; 0
     1ce:	00 e0       	ldi	r16, 0x00	; 0
     1d0:	10 e0       	ldi	r17, 0x00	; 0
     1d2:	20 e0       	ldi	r18, 0x00	; 0
     1d4:	30 e0       	ldi	r19, 0x00	; 0
		int found_one = 0;
		int one_index = 0;
		int zero_index = 10;
		for(int i=0;i<11; i++){
				if(!found_one){
     1d6:	20 97       	sbiw	r28, 0x00	; 0
     1d8:	59 f4       	brne	.+22     	; 0x1f0 <find_index+0x30>
						if(value%2 == 1){
     1da:	cf 01       	movw	r24, r30
     1dc:	62 e0       	ldi	r22, 0x02	; 2
     1de:	70 e0       	ldi	r23, 0x00	; 0
     1e0:	0e 94 96 08 	call	0x112c	; 0x112c <__divmodhi4>
     1e4:	01 97       	sbiw	r24, 0x01	; 1
     1e6:	31 f4       	brne	.+12     	; 0x1f4 <find_index+0x34>
     1e8:	89 01       	movw	r16, r18
     1ea:	c1 e0       	ldi	r28, 0x01	; 1
     1ec:	d0 e0       	ldi	r29, 0x00	; 0
     1ee:	02 c0       	rjmp	.+4      	; 0x1f4 <find_index+0x34>
								one_index = i;
								found_one = 1;
						}
						value = value >> 1;
				} else {
						if(value%2 == 0){
     1f0:	e0 ff       	sbrs	r30, 0
     1f2:	09 c0       	rjmp	.+18     	; 0x206 <find_index+0x46>
								zero_index = i;
								break;
						}
						value = value >> 1;
     1f4:	f5 95       	asr	r31
     1f6:	e7 95       	ror	r30
int find_index(int value)
{
		int found_one = 0;
		int one_index = 0;
		int zero_index = 10;
		for(int i=0;i<11; i++){
     1f8:	2f 5f       	subi	r18, 0xFF	; 255
     1fa:	3f 4f       	sbci	r19, 0xFF	; 255
     1fc:	2b 30       	cpi	r18, 0x0B	; 11
     1fe:	31 05       	cpc	r19, r1
     200:	51 f7       	brne	.-44     	; 0x1d6 <find_index+0x16>
     202:	2a e0       	ldi	r18, 0x0A	; 10
     204:	30 e0       	ldi	r19, 0x00	; 0
     206:	20 0f       	add	r18, r16
     208:	31 1f       	adc	r19, r17
     20a:	35 95       	asr	r19
     20c:	27 95       	ror	r18
						}
						value = value >> 1;
				}
		}
		return (one_index + zero_index) >> 1;
}
     20e:	c9 01       	movw	r24, r18
     210:	df 91       	pop	r29
     212:	cf 91       	pop	r28
     214:	1f 91       	pop	r17
     216:	0f 91       	pop	r16
     218:	08 95       	ret

0000021a <calculate_diff>:
// from the line sensor
int calculate_diff(int byte1, int byte2)
{
		byte2 &= 0b00000111;
		int value = (byte2 << 8) + byte1;
		int index = find_index(value);
     21a:	67 70       	andi	r22, 0x07	; 7
     21c:	70 70       	andi	r23, 0x00	; 0
     21e:	76 2f       	mov	r23, r22
     220:	66 27       	eor	r22, r22
     222:	86 0f       	add	r24, r22
     224:	97 1f       	adc	r25, r23
     226:	0e 94 e0 00 	call	0x1c0	; 0x1c0 <find_index>
        switch(index){
     22a:	84 30       	cpi	r24, 0x04	; 4
     22c:	91 05       	cpc	r25, r1
     22e:	81 f1       	breq	.+96     	; 0x290 <calculate_diff+0x76>
     230:	85 30       	cpi	r24, 0x05	; 5
     232:	91 05       	cpc	r25, r1
     234:	7c f4       	brge	.+30     	; 0x254 <calculate_diff+0x3a>
     236:	81 30       	cpi	r24, 0x01	; 1
     238:	91 05       	cpc	r25, r1
     23a:	f1 f0       	breq	.+60     	; 0x278 <calculate_diff+0x5e>
     23c:	82 30       	cpi	r24, 0x02	; 2
     23e:	91 05       	cpc	r25, r1
     240:	1c f4       	brge	.+6      	; 0x248 <calculate_diff+0x2e>
     242:	89 2b       	or	r24, r25
     244:	e1 f0       	breq	.+56     	; 0x27e <calculate_diff+0x64>
     246:	36 c0       	rjmp	.+108    	; 0x2b4 <calculate_diff+0x9a>
     248:	82 30       	cpi	r24, 0x02	; 2
     24a:	91 05       	cpc	r25, r1
     24c:	d9 f0       	breq	.+54     	; 0x284 <calculate_diff+0x6a>
     24e:	03 97       	sbiw	r24, 0x03	; 3
     250:	89 f5       	brne	.+98     	; 0x2b4 <calculate_diff+0x9a>
     252:	1b c0       	rjmp	.+54     	; 0x28a <calculate_diff+0x70>
     254:	88 30       	cpi	r24, 0x08	; 8
     256:	91 05       	cpc	r25, r1
     258:	21 f1       	breq	.+72     	; 0x2a2 <calculate_diff+0x88>
     25a:	89 30       	cpi	r24, 0x09	; 9
     25c:	91 05       	cpc	r25, r1
     25e:	34 f4       	brge	.+12     	; 0x26c <calculate_diff+0x52>
     260:	86 30       	cpi	r24, 0x06	; 6
     262:	91 05       	cpc	r25, r1
     264:	c1 f0       	breq	.+48     	; 0x296 <calculate_diff+0x7c>
     266:	07 97       	sbiw	r24, 0x07	; 7
     268:	29 f5       	brne	.+74     	; 0x2b4 <calculate_diff+0x9a>
     26a:	18 c0       	rjmp	.+48     	; 0x29c <calculate_diff+0x82>
     26c:	89 30       	cpi	r24, 0x09	; 9
     26e:	91 05       	cpc	r25, r1
     270:	d9 f0       	breq	.+54     	; 0x2a8 <calculate_diff+0x8e>
     272:	0a 97       	sbiw	r24, 0x0a	; 10
     274:	f9 f4       	brne	.+62     	; 0x2b4 <calculate_diff+0x9a>
     276:	1b c0       	rjmp	.+54     	; 0x2ae <calculate_diff+0x94>
     278:	26 ea       	ldi	r18, 0xA6	; 166
     27a:	3f ef       	ldi	r19, 0xFF	; 255
     27c:	1d c0       	rjmp	.+58     	; 0x2b8 <calculate_diff+0x9e>
     27e:	22 e9       	ldi	r18, 0x92	; 146
     280:	3f ef       	ldi	r19, 0xFF	; 255
     282:	1a c0       	rjmp	.+52     	; 0x2b8 <calculate_diff+0x9e>
     284:	25 eb       	ldi	r18, 0xB5	; 181
     286:	3f ef       	ldi	r19, 0xFF	; 255
     288:	17 c0       	rjmp	.+46     	; 0x2b8 <calculate_diff+0x9e>
                case 0 :
                        return -110;
                case 1:
                        return -90;
                case 2:
                        return -75;
     28a:	2e ec       	ldi	r18, 0xCE	; 206
     28c:	3f ef       	ldi	r19, 0xFF	; 255
     28e:	14 c0       	rjmp	.+40     	; 0x2b8 <calculate_diff+0x9e>
                case 3:
                        return -50;
     290:	27 ee       	ldi	r18, 0xE7	; 231
     292:	3f ef       	ldi	r19, 0xFF	; 255
     294:	11 c0       	rjmp	.+34     	; 0x2b8 <calculate_diff+0x9e>
                case 4:
                        return -25;
     296:	29 e1       	ldi	r18, 0x19	; 25
     298:	30 e0       	ldi	r19, 0x00	; 0
     29a:	0e c0       	rjmp	.+28     	; 0x2b8 <calculate_diff+0x9e>
                case 5:
                        return 0;
                case 6:
                        return 25;
     29c:	22 e3       	ldi	r18, 0x32	; 50
     29e:	30 e0       	ldi	r19, 0x00	; 0
     2a0:	0b c0       	rjmp	.+22     	; 0x2b8 <calculate_diff+0x9e>
                case 7:
                        return 50;
     2a2:	2b e4       	ldi	r18, 0x4B	; 75
     2a4:	30 e0       	ldi	r19, 0x00	; 0
     2a6:	08 c0       	rjmp	.+16     	; 0x2b8 <calculate_diff+0x9e>
                case 8:
                        return 75;
     2a8:	2a e5       	ldi	r18, 0x5A	; 90
     2aa:	30 e0       	ldi	r19, 0x00	; 0
     2ac:	05 c0       	rjmp	.+10     	; 0x2b8 <calculate_diff+0x9e>
                case 9:
                        return 90;
     2ae:	2e e6       	ldi	r18, 0x6E	; 110
     2b0:	30 e0       	ldi	r19, 0x00	; 0
     2b2:	02 c0       	rjmp	.+4      	; 0x2b8 <calculate_diff+0x9e>
                case 10:
                        return 110;
     2b4:	20 e0       	ldi	r18, 0x00	; 0
     2b6:	30 e0       	ldi	r19, 0x00	; 0
                default:
                        return 0;
        }
}
     2b8:	c9 01       	movw	r24, r18
     2ba:	08 95       	ret

000002bc <main>:

volatile int a=0;

int main(void){
		
		spi_init();	
     2bc:	0e 94 63 03 	call	0x6c6	; 0x6c6 <spi_init>
		ad_init();
     2c0:	0e 94 4f 03 	call	0x69e	; 0x69e <ad_init>
		SREG |= (1<<7);				//Globala avbrott	
     2c4:	8f b7       	in	r24, 0x3f	; 63
     2c6:	80 68       	ori	r24, 0x80	; 128
     2c8:	8f bf       	out	0x3f, r24	; 63


				while (a<255) {
						a++;
						if (a>254) {
								a = 1;
     2ca:	21 e0       	ldi	r18, 0x01	; 1
     2cc:	30 e0       	ldi	r19, 0x00	; 0
     2ce:	14 c0       	rjmp	.+40     	; 0x2f8 <main+0x3c>
		ad_init();
		SREG |= (1<<7);				//Globala avbrott	


				while (a<255) {
						a++;
     2d0:	80 91 68 01 	lds	r24, 0x0168
     2d4:	90 91 69 01 	lds	r25, 0x0169
     2d8:	01 96       	adiw	r24, 0x01	; 1
     2da:	90 93 69 01 	sts	0x0169, r25
     2de:	80 93 68 01 	sts	0x0168, r24
						if (a>254) {
     2e2:	80 91 68 01 	lds	r24, 0x0168
     2e6:	90 91 69 01 	lds	r25, 0x0169
     2ea:	8f 3f       	cpi	r24, 0xFF	; 255
     2ec:	91 05       	cpc	r25, r1
     2ee:	24 f0       	brlt	.+8      	; 0x2f8 <main+0x3c>
								a = 1;
     2f0:	30 93 69 01 	sts	0x0169, r19
     2f4:	20 93 68 01 	sts	0x0168, r18
		spi_init();	
		ad_init();
		SREG |= (1<<7);				//Globala avbrott	


				while (a<255) {
     2f8:	80 91 68 01 	lds	r24, 0x0168
     2fc:	90 91 69 01 	lds	r25, 0x0169
     300:	8f 3f       	cpi	r24, 0xFF	; 255
     302:	91 05       	cpc	r25, r1
     304:	2c f3       	brlt	.-54     	; 0x2d0 <main+0x14>
								a = 1;
						}
				}
		return 0;

}
     306:	80 e0       	ldi	r24, 0x00	; 0
     308:	90 e0       	ldi	r25, 0x00	; 0
     30a:	08 95       	ret

0000030c <__vector_8>:
		start_next_ad();
}


ISR(TIMER1_OVF_vect)
{
     30c:	1f 92       	push	r1
     30e:	0f 92       	push	r0
     310:	0f b6       	in	r0, 0x3f	; 63
     312:	0f 92       	push	r0
     314:	11 24       	eor	r1, r1
		ADCSRA |= (1<<ADSC);
     316:	36 9a       	sbi	0x06, 6	; 6
		count=0;			//starta om
     318:	10 92 7b 01 	sts	0x017B, r1
}
     31c:	0f 90       	pop	r0
     31e:	0f be       	out	0x3f, r0	; 63
     320:	0f 90       	pop	r0
     322:	1f 90       	pop	r1
     324:	18 95       	reti

00000326 <__vector_7>:

ISR(TIMER1_COMPB_vect)
{
     326:	1f 92       	push	r1
     328:	0f 92       	push	r0
     32a:	0f b6       	in	r0, 0x3f	; 63
     32c:	0f 92       	push	r0
     32e:	11 24       	eor	r1, r1
     330:	8f 93       	push	r24
		PORTC &= ~(1<<PC0) & ~(1<<PC1) & ~(1<<PC6) & ~(1<<PC7);	//kanal 0
     332:	85 b3       	in	r24, 0x15	; 21
     334:	8c 73       	andi	r24, 0x3C	; 60
     336:	85 bb       	out	0x15, r24	; 21
		ADMUX |= (1<<MUX0) | (1<<MUX1);							//byt till PA3
     338:	87 b1       	in	r24, 0x07	; 7
     33a:	83 60       	ori	r24, 0x03	; 3
     33c:	87 b9       	out	0x07, r24	; 7
		count=5;												//starta p√• linjesensorer
     33e:	85 e0       	ldi	r24, 0x05	; 5
     340:	80 93 7b 01 	sts	0x017B, r24
		ADCSRA |= (1<<ADSC);
     344:	36 9a       	sbi	0x06, 6	; 6
}
     346:	8f 91       	pop	r24
     348:	0f 90       	pop	r0
     34a:	0f be       	out	0x3f, r0	; 63
     34c:	0f 90       	pop	r0
     34e:	1f 90       	pop	r1
     350:	18 95       	reti

00000352 <create_line_array>:
 *         Name:  create_line_array
 *  Description:  Fyller tv√• byte med data d√§r bitarna visar 1 f√∂r svart och 0 f√∂r vit
 * =====================================================================================
 */
void create_line_array(int trunc_value, int vect_id)
{
     352:	9c 01       	movw	r18, r24
		if (vect_id==1){
     354:	61 30       	cpi	r22, 0x01	; 1
     356:	71 05       	cpc	r23, r1
     358:	61 f4       	brne	.+24     	; 0x372 <create_line_array+0x20>
				line_array_1 = (line_array_1>>1);
				line_array_1 |= (trunc_value<<7);
     35a:	36 95       	lsr	r19
     35c:	32 2f       	mov	r19, r18
     35e:	22 27       	eor	r18, r18
     360:	37 95       	ror	r19
     362:	27 95       	ror	r18
     364:	80 91 6f 01 	lds	r24, 0x016F
     368:	86 95       	lsr	r24
     36a:	82 2b       	or	r24, r18
     36c:	80 93 6f 01 	sts	0x016F, r24
     370:	08 95       	ret
		}
		else if(vect_id == 2){
     372:	62 30       	cpi	r22, 0x02	; 2
     374:	71 05       	cpc	r23, r1
     376:	59 f4       	brne	.+22     	; 0x38e <create_line_array+0x3c>
				line_array_2 = (line_array_2>>1);
				line_array_2 |= (trunc_value<<2);
     378:	22 0f       	add	r18, r18
     37a:	33 1f       	adc	r19, r19
     37c:	22 0f       	add	r18, r18
     37e:	33 1f       	adc	r19, r19
     380:	80 91 7a 01 	lds	r24, 0x017A
     384:	86 95       	lsr	r24
     386:	82 2b       	or	r24, r18
     388:	80 93 7a 01 	sts	0x017A, r24
     38c:	08 95       	ret
		}
		else{
				line_array_2 = 0;
     38e:	10 92 7a 01 	sts	0x017A, r1
				line_array_1 = 0;
     392:	10 92 6f 01 	sts	0x016F, r1
     396:	08 95       	ret

00000398 <truncate>:
 *  		  Input: en byte som ska tr√∂sklas
 *  		  Output: 1 om byten √§r mindre √§n tr√∂skelv√§rdet och 0 annars
 * =====================================================================================
 */
int truncate(unsigned char inbyte)
{
     398:	20 e0       	ldi	r18, 0x00	; 0
     39a:	30 e0       	ldi	r19, 0x00	; 0
     39c:	90 91 72 01 	lds	r25, 0x0172
     3a0:	98 17       	cp	r25, r24
     3a2:	10 f4       	brcc	.+4      	; 0x3a8 <truncate+0x10>
     3a4:	21 e0       	ldi	r18, 0x01	; 1
     3a6:	30 e0       	ldi	r19, 0x00	; 0
		if(inbyte > level){
				return 1;
		} else {
				return 0;
		}
}
     3a8:	c9 01       	movw	r24, r18
     3aa:	08 95       	ret

000003ac <control_mux>:
 \***************************************************************************/


unsigned char control_mux()
{
		switch (count){
     3ac:	80 91 7b 01 	lds	r24, 0x017B
     3b0:	87 30       	cpi	r24, 0x07	; 7
     3b2:	09 f4       	brne	.+2      	; 0x3b6 <control_mux+0xa>
     3b4:	6b c0       	rjmp	.+214    	; 0x48c <__stack+0x2d>
     3b6:	88 30       	cpi	r24, 0x08	; 8
     3b8:	88 f4       	brcc	.+34     	; 0x3dc <control_mux+0x30>
     3ba:	83 30       	cpi	r24, 0x03	; 3
     3bc:	09 f4       	brne	.+2      	; 0x3c0 <control_mux+0x14>
     3be:	46 c0       	rjmp	.+140    	; 0x44c <control_mux+0xa0>
     3c0:	84 30       	cpi	r24, 0x04	; 4
     3c2:	28 f4       	brcc	.+10     	; 0x3ce <control_mux+0x22>
     3c4:	81 30       	cpi	r24, 0x01	; 1
     3c6:	69 f1       	breq	.+90     	; 0x422 <control_mux+0x76>
     3c8:	82 30       	cpi	r24, 0x02	; 2
     3ca:	a8 f5       	brcc	.+106    	; 0x436 <control_mux+0x8a>
     3cc:	21 c0       	rjmp	.+66     	; 0x410 <control_mux+0x64>
     3ce:	85 30       	cpi	r24, 0x05	; 5
     3d0:	09 f4       	brne	.+2      	; 0x3d4 <control_mux+0x28>
     3d2:	5c c0       	rjmp	.+184    	; 0x48c <__stack+0x2d>
     3d4:	86 30       	cpi	r24, 0x06	; 6
     3d6:	08 f0       	brcs	.+2      	; 0x3da <control_mux+0x2e>
     3d8:	56 c0       	rjmp	.+172    	; 0x486 <__stack+0x27>
     3da:	44 c0       	rjmp	.+136    	; 0x464 <__stack+0x5>
     3dc:	8b 30       	cpi	r24, 0x0B	; 11
     3de:	09 f4       	brne	.+2      	; 0x3e2 <control_mux+0x36>
     3e0:	55 c0       	rjmp	.+170    	; 0x48c <__stack+0x2d>
     3e2:	8c 30       	cpi	r24, 0x0C	; 12
     3e4:	38 f4       	brcc	.+14     	; 0x3f4 <control_mux+0x48>
     3e6:	89 30       	cpi	r24, 0x09	; 9
     3e8:	09 f4       	brne	.+2      	; 0x3ec <control_mux+0x40>
     3ea:	50 c0       	rjmp	.+160    	; 0x48c <__stack+0x2d>
     3ec:	8a 30       	cpi	r24, 0x0A	; 10
     3ee:	08 f0       	brcs	.+2      	; 0x3f2 <control_mux+0x46>
     3f0:	4a c0       	rjmp	.+148    	; 0x486 <__stack+0x27>
     3f2:	44 c0       	rjmp	.+136    	; 0x47c <__stack+0x1d>
     3f4:	8d 30       	cpi	r24, 0x0D	; 13
     3f6:	09 f4       	brne	.+2      	; 0x3fa <control_mux+0x4e>
     3f8:	51 c0       	rjmp	.+162    	; 0x49c <__stack+0x3d>
     3fa:	8d 30       	cpi	r24, 0x0D	; 13
     3fc:	08 f4       	brcc	.+2      	; 0x400 <control_mux+0x54>
     3fe:	48 c0       	rjmp	.+144    	; 0x490 <__stack+0x31>
     400:	8e 30       	cpi	r24, 0x0E	; 14
     402:	09 f4       	brne	.+2      	; 0x406 <control_mux+0x5a>
     404:	4d c0       	rjmp	.+154    	; 0x4a0 <__stack+0x41>
     406:	8f 30       	cpi	r24, 0x0F	; 15
     408:	09 f4       	brne	.+2      	; 0x40c <control_mux+0x60>
     40a:	4e c0       	rjmp	.+156    	; 0x4a8 <__stack+0x49>
     40c:	80 e0       	ldi	r24, 0x00	; 0
     40e:	08 95       	ret
		case(0):
				ADMUX |= (1<<MUX2); 					//byt till PA4			
     410:	3a 9a       	sbi	0x07, 2	; 7
				dist_left_front=vansteromvandling_front(ADCH);
     412:	85 b1       	in	r24, 0x05	; 5
     414:	90 e0       	ldi	r25, 0x00	; 0
     416:	0e 94 64 04 	call	0x8c8	; 0x8c8 <vansteromvandling_front>
     41a:	80 93 80 01 	sts	0x0180, r24
     41e:	81 e0       	ldi	r24, 0x01	; 1
     420:	08 95       	ret
				return 1;
		case(1):
				ADMUX |= (1<<MUX0);					//byt till PA1
     422:	38 9a       	sbi	0x07, 0	; 7
				ADMUX &= ~(1<<MUX2);
     424:	3a 98       	cbi	0x07, 2	; 7
				dist_left_back=vansteromvandling_back(ADCH);
     426:	85 b1       	in	r24, 0x05	; 5
     428:	90 e0       	ldi	r25, 0x00	; 0
     42a:	0e 94 1a 04 	call	0x834	; 0x834 <vansteromvandling_back>
     42e:	80 93 79 01 	sts	0x0179, r24
     432:	82 e0       	ldi	r24, 0x02	; 2
     434:	08 95       	ret
				return 2;
		case(2):
				ADMUX |= (1<<MUX2) | (1<<MUX0);		//byt till PA5
     436:	87 b1       	in	r24, 0x07	; 7
     438:	85 60       	ori	r24, 0x05	; 5
     43a:	87 b9       	out	0x07, r24	; 7
				
				dist_right_front=hogeromvandling_front(ADCH);
     43c:	85 b1       	in	r24, 0x05	; 5
     43e:	90 e0       	ldi	r25, 0x00	; 0
     440:	0e 94 0b 05 	call	0xa16	; 0xa16 <hogeromvandling_front>
     444:	80 93 75 01 	sts	0x0175, r24
     448:	83 e0       	ldi	r24, 0x03	; 3
     44a:	08 95       	ret
				return 3;
		case(3):
				ADMUX |= (1<<MUX1);					//byt till PA2
     44c:	39 9a       	sbi	0x07, 1	; 7
				ADMUX &= ~(1<<MUX0) & ~(1<<MUX2);
     44e:	87 b1       	in	r24, 0x07	; 7
     450:	8a 7f       	andi	r24, 0xFA	; 250
     452:	87 b9       	out	0x07, r24	; 7
				dist_right_back=hogeromvandling_back(ADCH);
     454:	85 b1       	in	r24, 0x05	; 5
     456:	90 e0       	ldi	r25, 0x00	; 0
     458:	0e 94 ae 04 	call	0x95c	; 0x95c <hogeromvandling_back>
     45c:	80 93 6e 01 	sts	0x016E, r24
     460:	84 e0       	ldi	r24, 0x04	; 4
     462:	08 95       	ret
				return 4;
		case(4):
				ADMUX |= (1<<MUX0);					//byt till PA3
     464:	38 9a       	sbi	0x07, 0	; 7
				PORTC &= ~(1<<PC0) & ~(1<<PC1) & ~(1<<PC6) & ~(1<<PC7);	
     466:	85 b3       	in	r24, 0x15	; 21
     468:	8c 73       	andi	r24, 0x3C	; 60
     46a:	85 bb       	out	0x15, r24	; 21
				//kanal noll p√• extern mux/demux
				dist_front=framomvandling(ADCH);
     46c:	85 b1       	in	r24, 0x05	; 5
     46e:	90 e0       	ldi	r25, 0x00	; 0
     470:	0e 94 d0 03 	call	0x7a0	; 0x7a0 <framomvandling>
     474:	80 93 7f 01 	sts	0x017F, r24
     478:	85 e0       	ldi	r24, 0x05	; 5
     47a:	08 95       	ret
				return 6;
		case(7):
				PORTC |= (1<<PC0);					//kanal 3
				return 6;
		case(8):
				PORTC |= (1<<PC6);
     47c:	ae 9a       	sbi	0x15, 6	; 21
				PORTC &= ~(1<<PC0) & ~(1<<PC1);		//kanal 4
     47e:	85 b3       	in	r24, 0x15	; 21
     480:	8c 7f       	andi	r24, 0xFC	; 252
     482:	85 bb       	out	0x15, r24	; 21
     484:	09 c0       	rjmp	.+18     	; 0x498 <__stack+0x39>
				return 6;
		case(9):
				PORTC |= (1<<PC0);					//kanal 5
				return 6;
		case(10):
				PORTC |= (1<<PC1);
     486:	a9 9a       	sbi	0x15, 1	; 21
				PORTC &= ~(1<<PC0);					//kanal 6
     488:	a8 98       	cbi	0x15, 0	; 21
     48a:	06 c0       	rjmp	.+12     	; 0x498 <__stack+0x39>
				return 6;
		case(11):
				PORTC |= (1<<PC0);					//kanal 7
     48c:	a8 9a       	sbi	0x15, 0	; 21
     48e:	04 c0       	rjmp	.+8      	; 0x498 <__stack+0x39>
				return 6;
		case(12):
				PORTC &= ~(1<<PC0) & ~(1<<PC1) & ~(1<<PC6);
     490:	85 b3       	in	r24, 0x15	; 21
     492:	8c 7b       	andi	r24, 0xBC	; 188
     494:	85 bb       	out	0x15, r24	; 21
				PORTC |= (1<<PC7);					//kanal 8
     496:	af 9a       	sbi	0x15, 7	; 21
     498:	86 e0       	ldi	r24, 0x06	; 6
     49a:	08 95       	ret
				return 6;
		case(13):
				PORTC |= (1<<PC0);					//kanal 9
     49c:	a8 9a       	sbi	0x15, 0	; 21
     49e:	02 c0       	rjmp	.+4      	; 0x4a4 <__stack+0x45>
				return 7;
		case(14):
				PORTC |= (1<<PC1);
     4a0:	a9 9a       	sbi	0x15, 1	; 21
				PORTC &= ~(1<<PC0);					//kanal 10
     4a2:	a8 98       	cbi	0x15, 0	; 21
     4a4:	87 e0       	ldi	r24, 0x07	; 7
     4a6:	08 95       	ret
				return 7;
		case(15):
				ADMUX &= ~(1<<MUX0) & ~(1<<MUX1); 	//PA0
     4a8:	87 b1       	in	r24, 0x07	; 7
     4aa:	8c 7f       	andi	r24, 0xFC	; 252
     4ac:	87 b9       	out	0x07, r24	; 7
				PORTC |= (1<<PC0);					//kanal 11
     4ae:	a8 9a       	sbi	0x15, 0	; 21
     4b0:	87 e0       	ldi	r24, 0x07	; 7
				return 7;
		default:
				return 0;
		}
				
}
     4b2:	08 95       	ret

000004b4 <start_next_ad>:
 *				  andra funktioner anropas h‰rifrÂn.
 * =====================================================================================
 */
void start_next_ad()
{
		unsigned char state=control_mux();
     4b4:	0e 94 d6 01 	call	0x3ac	; 0x3ac <control_mux>

		if (state==1){				//left_front klar
     4b8:	81 30       	cpi	r24, 0x01	; 1
     4ba:	a9 f4       	brne	.+42     	; 0x4e6 <start_next_ad+0x32>
				if(maze_mode==1 && auto_mode==1){
     4bc:	80 91 70 01 	lds	r24, 0x0170
     4c0:	90 91 71 01 	lds	r25, 0x0171
     4c4:	01 97       	sbiw	r24, 0x01	; 1
     4c6:	09 f0       	breq	.+2      	; 0x4ca <start_next_ad+0x16>
     4c8:	65 c0       	rjmp	.+202    	; 0x594 <start_next_ad+0xe0>
     4ca:	80 91 76 01 	lds	r24, 0x0176
     4ce:	90 91 77 01 	lds	r25, 0x0177
     4d2:	01 97       	sbiw	r24, 0x01	; 1
     4d4:	09 f0       	breq	.+2      	; 0x4d8 <start_next_ad+0x24>
     4d6:	5e c0       	rjmp	.+188    	; 0x594 <start_next_ad+0xe0>
						header = 0xC1;	//Skicka till styr&pc med E-flagga
     4d8:	81 ec       	ldi	r24, 0xC1	; 193
     4da:	80 93 7c 01 	sts	0x017C, r24
						data=0x80 | dist_left_front;
     4de:	80 91 80 01 	lds	r24, 0x0180
     4e2:	80 68       	ori	r24, 0x80	; 128
     4e4:	31 c0       	rjmp	.+98     	; 0x548 <start_next_ad+0x94>
						req_sending();
				}
		}
		 else if (state==2){			//left_back klar
     4e6:	82 30       	cpi	r24, 0x02	; 2
     4e8:	a1 f4       	brne	.+40     	; 0x512 <start_next_ad+0x5e>
				if(maze_mode==1 && auto_mode==1){
     4ea:	80 91 70 01 	lds	r24, 0x0170
     4ee:	90 91 71 01 	lds	r25, 0x0171
     4f2:	01 97       	sbiw	r24, 0x01	; 1
     4f4:	09 f0       	breq	.+2      	; 0x4f8 <start_next_ad+0x44>
     4f6:	4e c0       	rjmp	.+156    	; 0x594 <start_next_ad+0xe0>
     4f8:	80 91 76 01 	lds	r24, 0x0176
     4fc:	90 91 77 01 	lds	r25, 0x0177
     500:	01 97       	sbiw	r24, 0x01	; 1
     502:	09 f0       	breq	.+2      	; 0x506 <start_next_ad+0x52>
     504:	47 c0       	rjmp	.+142    	; 0x594 <start_next_ad+0xe0>
						header = 0xC1;	//Skicka till styr&pc med E-flagga
     506:	81 ec       	ldi	r24, 0xC1	; 193
     508:	80 93 7c 01 	sts	0x017C, r24
						data= dist_left_back;
     50c:	80 91 79 01 	lds	r24, 0x0179
     510:	1b c0       	rjmp	.+54     	; 0x548 <start_next_ad+0x94>
						req_sending();
				}
		}
		
		else if (state==3){			//right_front klar
     512:	83 30       	cpi	r24, 0x03	; 3
     514:	91 f4       	brne	.+36     	; 0x53a <start_next_ad+0x86>
				if(maze_mode==1 && auto_mode==1){
     516:	80 91 70 01 	lds	r24, 0x0170
     51a:	90 91 71 01 	lds	r25, 0x0171
     51e:	01 97       	sbiw	r24, 0x01	; 1
     520:	c9 f5       	brne	.+114    	; 0x594 <start_next_ad+0xe0>
     522:	80 91 76 01 	lds	r24, 0x0176
     526:	90 91 77 01 	lds	r25, 0x0177
     52a:	01 97       	sbiw	r24, 0x01	; 1
     52c:	99 f5       	brne	.+102    	; 0x594 <start_next_ad+0xe0>
						header = 0xC1;	//Skicka till styr&pc med E-flagga
     52e:	81 ec       	ldi	r24, 0xC1	; 193
     530:	80 93 7c 01 	sts	0x017C, r24
						data= dist_right_front;
     534:	80 91 75 01 	lds	r24, 0x0175
     538:	07 c0       	rjmp	.+14     	; 0x548 <start_next_ad+0x94>
						req_sending();
				}
		}

		
		else if (state==4){			//right_back klar
     53a:	84 30       	cpi	r24, 0x04	; 4
     53c:	51 f4       	brne	.+20     	; 0x552 <start_next_ad+0x9e>
				if(1){//maze_mode==1 && auto_mode==1){
						header = 0xC1;	//Skicka till styr&pc med E-flagga
     53e:	81 ec       	ldi	r24, 0xC1	; 193
     540:	80 93 7c 01 	sts	0x017C, r24
						data= dist_right_back;
     544:	80 91 6e 01 	lds	r24, 0x016E
     548:	80 93 78 01 	sts	0x0178, r24
						req_sending();
     54c:	0e 94 72 03 	call	0x6e4	; 0x6e4 <req_sending>
     550:	21 c0       	rjmp	.+66     	; 0x594 <start_next_ad+0xe0>
				}
		}
		else if(state==5){			//front klar
     552:	85 30       	cpi	r24, 0x05	; 5
     554:	f9 f0       	breq	.+62     	; 0x594 <start_next_ad+0xe0>
				//visa p√• display
		}
		else if(state==6){			//linjesensor 0-7 p√•g√•r 
     556:	86 30       	cpi	r24, 0x06	; 6
     558:	69 f4       	brne	.+26     	; 0x574 <start_next_ad+0xc0>
				create_line_array(truncate(ADCH), 1);
     55a:	95 b1       	in	r25, 0x05	; 5
     55c:	20 e0       	ldi	r18, 0x00	; 0
     55e:	30 e0       	ldi	r19, 0x00	; 0
     560:	80 91 72 01 	lds	r24, 0x0172
     564:	89 17       	cp	r24, r25
     566:	10 f4       	brcc	.+4      	; 0x56c <start_next_ad+0xb8>
     568:	21 e0       	ldi	r18, 0x01	; 1
     56a:	30 e0       	ldi	r19, 0x00	; 0
     56c:	c9 01       	movw	r24, r18
     56e:	61 e0       	ldi	r22, 0x01	; 1
     570:	70 e0       	ldi	r23, 0x00	; 0
     572:	0e c0       	rjmp	.+28     	; 0x590 <start_next_ad+0xdc>
		}
		else if(state==7){			//linjesensor 8-10 p√•g√•r
     574:	87 30       	cpi	r24, 0x07	; 7
     576:	71 f4       	brne	.+28     	; 0x594 <start_next_ad+0xe0>
				create_line_array(truncate(ADCH), 2);
     578:	95 b1       	in	r25, 0x05	; 5
     57a:	20 e0       	ldi	r18, 0x00	; 0
     57c:	30 e0       	ldi	r19, 0x00	; 0
     57e:	80 91 72 01 	lds	r24, 0x0172
     582:	89 17       	cp	r24, r25
     584:	10 f4       	brcc	.+4      	; 0x58a <start_next_ad+0xd6>
     586:	21 e0       	ldi	r18, 0x01	; 1
     588:	30 e0       	ldi	r19, 0x00	; 0
     58a:	c9 01       	movw	r24, r18
     58c:	62 e0       	ldi	r22, 0x02	; 2
     58e:	70 e0       	ldi	r23, 0x00	; 0
     590:	0e 94 a9 01 	call	0x352	; 0x352 <create_line_array>
		else {
				;
		}
				

		if (count==15){				//alla linjesensorer omvandlade
     594:	80 91 7b 01 	lds	r24, 0x017B
     598:	8f 30       	cpi	r24, 0x0F	; 15
     59a:	09 f0       	breq	.+2      	; 0x59e <start_next_ad+0xea>
     59c:	55 c0       	rjmp	.+170    	; 0x648 <start_next_ad+0x194>
				if (maze_mode==0 && auto_mode==1){
     59e:	80 91 70 01 	lds	r24, 0x0170
     5a2:	90 91 71 01 	lds	r25, 0x0171
     5a6:	00 97       	sbiw	r24, 0x00	; 0
     5a8:	09 f5       	brne	.+66     	; 0x5ec <start_next_ad+0x138>
     5aa:	80 91 76 01 	lds	r24, 0x0176
     5ae:	90 91 77 01 	lds	r25, 0x0177
     5b2:	01 97       	sbiw	r24, 0x01	; 1
     5b4:	09 f0       	breq	.+2      	; 0x5b8 <start_next_ad+0x104>
     5b6:	41 c0       	rjmp	.+130    	; 0x63a <start_next_ad+0x186>
						data=calculate_diff(line_array_1, line_array_2); 
     5b8:	60 91 7a 01 	lds	r22, 0x017A
     5bc:	80 91 6f 01 	lds	r24, 0x016F
     5c0:	90 e0       	ldi	r25, 0x00	; 0
     5c2:	70 e0       	ldi	r23, 0x00	; 0
     5c4:	0e 94 0d 01 	call	0x21a	; 0x21a <calculate_diff>
     5c8:	80 93 78 01 	sts	0x0178, r24
						header=0x51; 	//Skicka till styr med A- och E-flagga
     5cc:	81 e5       	ldi	r24, 0x51	; 81
     5ce:	80 93 7c 01 	sts	0x017C, r24
						req_sending();
     5d2:	0e 94 72 03 	call	0x6e4	; 0x6e4 <req_sending>
						
						//inga linjer? byt till maze_mode=1 om v√§ggar finns 
						if(line_array_1==0 && line_array_2==0) {
     5d6:	80 91 6f 01 	lds	r24, 0x016F
     5da:	88 23       	and	r24, r24
     5dc:	71 f5       	brne	.+92     	; 0x63a <start_next_ad+0x186>
     5de:	80 91 7a 01 	lds	r24, 0x017A
     5e2:	88 23       	and	r24, r24
     5e4:	51 f5       	brne	.+84     	; 0x63a <start_next_ad+0x186>
								decide_maze_mode(1);
     5e6:	81 e0       	ldi	r24, 0x01	; 1
     5e8:	90 e0       	ldi	r25, 0x00	; 0
     5ea:	25 c0       	rjmp	.+74     	; 0x636 <start_next_ad+0x182>
						}
				}
				else if(maze_mode==1 && auto_mode==1){
     5ec:	01 97       	sbiw	r24, 0x01	; 1
     5ee:	29 f5       	brne	.+74     	; 0x63a <start_next_ad+0x186>
     5f0:	80 91 76 01 	lds	r24, 0x0176
     5f4:	90 91 77 01 	lds	r25, 0x0177
     5f8:	01 97       	sbiw	r24, 0x01	; 1
     5fa:	f9 f4       	brne	.+62     	; 0x63a <start_next_ad+0x186>
						
						int temp = markning(find_ones(line_array_1));
     5fc:	80 91 6f 01 	lds	r24, 0x016F
     600:	0e 94 49 00 	call	0x92	; 0x92 <find_ones>
     604:	0e 94 52 00 	call	0xa4	; 0xa4 <markning>
						generate_special_command(temp);
     608:	0e 94 5b 05 	call	0xab6	; 0xab6 <generate_special_command>
						

					
						if(search_for_crossroad()){
     60c:	0e 94 72 05 	call	0xae4	; 0xae4 <search_for_crossroad>
     610:	89 2b       	or	r24, r25
     612:	39 f0       	breq	.+14     	; 0x622 <start_next_ad+0x16e>
							//Om en korsning upptackts: skicka specialkommandot som ska utforas till styrenheten
 							send_special_command(get_next_special_command());
     614:	0e 94 58 05 	call	0xab0	; 0xab0 <get_next_special_command>
     618:	0e 94 91 05 	call	0xb22	; 0xb22 <send_special_command>
							//Resetar den globala variabeln next_special_command for att forma roboten att uppna vanlig reglering
							generate_special_command(4);
     61c:	84 e0       	ldi	r24, 0x04	; 4
     61e:	0e 94 5b 05 	call	0xab6	; 0xab6 <generate_special_command>
						}
						

						//linjer? byt till maze_mode=0 om inga v√§ggar finns
						if(line_array_1!=0 && line_array_2!=0) {
     622:	80 91 6f 01 	lds	r24, 0x016F
     626:	88 23       	and	r24, r24
     628:	41 f0       	breq	.+16     	; 0x63a <start_next_ad+0x186>
     62a:	80 91 7a 01 	lds	r24, 0x017A
     62e:	88 23       	and	r24, r24
     630:	21 f0       	breq	.+8      	; 0x63a <start_next_ad+0x186>
								decide_maze_mode(0);
     632:	80 e0       	ldi	r24, 0x00	; 0
     634:	90 e0       	ldi	r25, 0x00	; 0
     636:	0e 94 ab 00 	call	0x156	; 0x156 <decide_maze_mode>
						}
				}



				create_line_array(0,0);		//Nollst√§ll
     63a:	80 e0       	ldi	r24, 0x00	; 0
     63c:	90 e0       	ldi	r25, 0x00	; 0
     63e:	60 e0       	ldi	r22, 0x00	; 0
     640:	70 e0       	ldi	r23, 0x00	; 0
     642:	0e 94 a9 01 	call	0x352	; 0x352 <create_line_array>
     646:	08 95       	ret

		}
		else if (count<15){
     648:	8f 30       	cpi	r24, 0x0F	; 15
     64a:	20 f4       	brcc	.+8      	; 0x654 <start_next_ad+0x1a0>
			count++;
     64c:	8f 5f       	subi	r24, 0xFF	; 255
     64e:	80 93 7b 01 	sts	0x017B, r24
			ADCSRA |= (1<<ADSC);		//starta n√§sta omvandling
     652:	36 9a       	sbi	0x06, 6	; 6
     654:	08 95       	ret

00000656 <__vector_14>:
unsigned char control_mux();



ISR(ADC_vect)
{
     656:	1f 92       	push	r1
     658:	0f 92       	push	r0
     65a:	0f b6       	in	r0, 0x3f	; 63
     65c:	0f 92       	push	r0
     65e:	11 24       	eor	r1, r1
     660:	2f 93       	push	r18
     662:	3f 93       	push	r19
     664:	4f 93       	push	r20
     666:	5f 93       	push	r21
     668:	6f 93       	push	r22
     66a:	7f 93       	push	r23
     66c:	8f 93       	push	r24
     66e:	9f 93       	push	r25
     670:	af 93       	push	r26
     672:	bf 93       	push	r27
     674:	ef 93       	push	r30
     676:	ff 93       	push	r31
		start_next_ad();
     678:	0e 94 5a 02 	call	0x4b4	; 0x4b4 <start_next_ad>
}
     67c:	ff 91       	pop	r31
     67e:	ef 91       	pop	r30
     680:	bf 91       	pop	r27
     682:	af 91       	pop	r26
     684:	9f 91       	pop	r25
     686:	8f 91       	pop	r24
     688:	7f 91       	pop	r23
     68a:	6f 91       	pop	r22
     68c:	5f 91       	pop	r21
     68e:	4f 91       	pop	r20
     690:	3f 91       	pop	r19
     692:	2f 91       	pop	r18
     694:	0f 90       	pop	r0
     696:	0f be       	out	0x3f, r0	; 63
     698:	0f 90       	pop	r0
     69a:	1f 90       	pop	r1
     69c:	18 95       	reti

0000069e <ad_init>:
		decide_mode();
}

void ad_init()
{
		ADMUX |= (1<<ADLAR);				//V‰nsterjustering
     69e:	3d 9a       	sbi	0x07, 5	; 7
		ADCSRA |= (1<<ADEN) | (1<<ADIE) | (1<<ADPS2) | (1<<ADPS1) | (1<<ADPS0);
     6a0:	86 b1       	in	r24, 0x06	; 6
     6a2:	8f 68       	ori	r24, 0x8F	; 143
     6a4:	86 b9       	out	0x06, r24	; 6
		//TillÂt ADC avbrott, dela frekvens med 128

		DDRC |= (1<<DDC0) | (1<<DDC1) | (1<<DDC6) | (1<<DDC7);
     6a6:	84 b3       	in	r24, 0x14	; 20
     6a8:	83 6c       	ori	r24, 0xC3	; 195
     6aa:	84 bb       	out	0x14, r24	; 20
		PORTC |= (1<<PC0) | (1<<PC1) | (1<<PC6) | (1<<PC7);
     6ac:	85 b3       	in	r24, 0x15	; 21
     6ae:	83 6c       	ori	r24, 0xC3	; 195
     6b0:	85 bb       	out	0x15, r24	; 21
		TIMSK |= (1<<TOV1);			//TillÂt interrupts pÂ timer overflow
     6b2:	89 b7       	in	r24, 0x39	; 57
     6b4:	84 60       	ori	r24, 0x04	; 4
     6b6:	89 bf       	out	0x39, r24	; 57
		TCCR1B |= (1<<CS11);		//Prescaler delar med 8, startar r‰knare
     6b8:	8e b5       	in	r24, 0x2e	; 46
     6ba:	82 60       	ori	r24, 0x02	; 2
     6bc:	8e bd       	out	0x2e, r24	; 46
		level = 0xA8;				//Trˆskelv‰rde
     6be:	88 ea       	ldi	r24, 0xA8	; 168
     6c0:	80 93 72 01 	sts	0x0172, r24
}
     6c4:	08 95       	ret

000006c6 <spi_init>:
#include "sensor_spi.h"
#include "upptack_tejp.h"
		
void spi_init()
{		
		DDRB |= (1<<DDB6) | (1<<DDB3); //1=ut bit7=SCLK,1 bit6=MISO,0 bit5=MOSI bit4=SS1
     6c6:	87 b3       	in	r24, 0x17	; 23
     6c8:	88 64       	ori	r24, 0x48	; 72
     6ca:	87 bb       	out	0x17, r24	; 23
		SPCR |= (1<<SPIE) | (1<<SPE);  
     6cc:	8d b1       	in	r24, 0x0d	; 13
     6ce:	80 6c       	ori	r24, 0xC0	; 192
     6d0:	8d b9       	out	0x0d, r24	; 13
		//bit7 SPI interrupt enable bit6 SPI enable bit5 LSB first bit4 slave bit3:2 SPI-mode 3, bit1:0 gˆr inget	
		GICR |= (1<<INT0);		//Tillåt avbrott från spak
     6d2:	8b b7       	in	r24, 0x3b	; 59
     6d4:	80 64       	ori	r24, 0x40	; 64
     6d6:	8b bf       	out	0x3b, r24	; 59
		MCUCR |= (1<<ISC00);	//Spakavbrott triggar på change
     6d8:	85 b7       	in	r24, 0x35	; 53
     6da:	81 60       	ori	r24, 0x01	; 1
     6dc:	85 bf       	out	0x35, r24	; 53
		decide_mode();
     6de:	0e 94 c0 03 	call	0x780	; 0x780 <decide_mode>
}
     6e2:	08 95       	ret

000006e4 <req_sending>:
void tolka_data();

int req_sending()
{
		
		SPDR= header;
     6e4:	80 91 7c 01 	lds	r24, 0x017C
     6e8:	8f b9       	out	0x0f, r24	; 15
		PORTB |= (1<<PB3); //skicka req
     6ea:	c3 9a       	sbi	0x18, 3	; 24
		return 0;
}
     6ec:	80 e0       	ldi	r24, 0x00	; 0
     6ee:	90 e0       	ldi	r25, 0x00	; 0
     6f0:	08 95       	ret

000006f2 <__vector_10>:

ISR(SPI_STC_vect) //sensor REQ
{
     6f2:	1f 92       	push	r1
     6f4:	0f 92       	push	r0
     6f6:	0f b6       	in	r0, 0x3f	; 63
     6f8:	0f 92       	push	r0
     6fa:	11 24       	eor	r1, r1
     6fc:	8f 93       	push	r24
     6fe:	9f 93       	push	r25
		



				PORTB &= ~(1<<PB3); 		//REQ low
     700:	c3 98       	cbi	0x18, 3	; 24
				header=SPDR;			//spara mottagen header
     702:	9f b1       	in	r25, 0x0f	; 15
     704:	90 93 7c 01 	sts	0x017C, r25
				SPDR=data;				//V‰lj data fˆr n‰sta ˆverfˆring
     708:	80 91 78 01 	lds	r24, 0x0178
     70c:	8f b9       	out	0x0f, r24	; 15
				PORTB |= (1<<PB3); 		//REQ high
     70e:	c3 9a       	sbi	0x18, 3	; 24
				while(!(SPSR & (1<<SPIF)))
     710:	77 9b       	sbis	0x0e, 7	; 14
     712:	fe cf       	rjmp	.-4      	; 0x710 <__vector_10+0x1e>
				{
				;
				}	
				PORTB &= ~(1<<PB3); 		//REQ low
     714:	c3 98       	cbi	0x18, 3	; 24
				data=SPDR;			//spara mottagen data
     716:	8f b1       	in	r24, 0x0f	; 15
     718:	80 93 78 01 	sts	0x0178, r24
				SPDR=0x00;
     71c:	1f b8       	out	0x0f, r1	; 15
	trˆsklingsnivÂ (nivÂn skickas som data).
\*****************************************************************************/

void tolka_data()
{
		if(header==0x2F){		//st‰ll in trˆskelnivÂ direkt
     71e:	9f 32       	cpi	r25, 0x2F	; 47
     720:	11 f4       	brne	.+4      	; 0x726 <__vector_10+0x34>
				level=data;
     722:	80 93 72 01 	sts	0x0172, r24
				data=SPDR;			//spara mottagen data
				SPDR=0x00;

				tolka_data();

}
     726:	9f 91       	pop	r25
     728:	8f 91       	pop	r24
     72a:	0f 90       	pop	r0
     72c:	0f be       	out	0x3f, r0	; 63
     72e:	0f 90       	pop	r0
     730:	1f 90       	pop	r1
     732:	18 95       	reti

00000734 <tolka_data>:
	trˆsklingsnivÂ (nivÂn skickas som data).
\*****************************************************************************/

void tolka_data()
{
		if(header==0x2F){		//st‰ll in trˆskelnivÂ direkt
     734:	80 91 7c 01 	lds	r24, 0x017C
     738:	8f 32       	cpi	r24, 0x2F	; 47
     73a:	21 f4       	brne	.+8      	; 0x744 <tolka_data+0x10>
				level=data;
     73c:	80 91 78 01 	lds	r24, 0x0178
     740:	80 93 72 01 	sts	0x0172, r24
     744:	08 95       	ret

00000746 <__vector_1>:

//*auto_mode beskriver huruvida roboten är i autonomt läge eller ej.
//INT0 är programmerat för att ge avbrott på förändring på spaken för att byta läge*

ISR(INT0_vect)
{
     746:	1f 92       	push	r1
     748:	0f 92       	push	r0
     74a:	0f b6       	in	r0, 0x3f	; 63
     74c:	0f 92       	push	r0
     74e:	11 24       	eor	r1, r1
     750:	8f 93       	push	r24
     752:	9f 93       	push	r25
}
	

void decide_mode()
{
		if(0x04==(PIND & 0x04)){
     754:	82 9b       	sbis	0x10, 2	; 16
     756:	07 c0       	rjmp	.+14     	; 0x766 <__vector_1+0x20>
				auto_mode=1;
     758:	81 e0       	ldi	r24, 0x01	; 1
     75a:	90 e0       	ldi	r25, 0x00	; 0
     75c:	90 93 77 01 	sts	0x0177, r25
     760:	80 93 76 01 	sts	0x0176, r24
     764:	06 c0       	rjmp	.+12     	; 0x772 <__vector_1+0x2c>
		}
		else if(0x00==(PIND & 0x04)){
     766:	82 99       	sbic	0x10, 2	; 16
     768:	04 c0       	rjmp	.+8      	; 0x772 <__vector_1+0x2c>
				auto_mode=0;
     76a:	10 92 77 01 	sts	0x0177, r1
     76e:	10 92 76 01 	sts	0x0176, r1
//INT0 är programmerat för att ge avbrott på förändring på spaken för att byta läge*

ISR(INT0_vect)
{
		decide_mode();
}
     772:	9f 91       	pop	r25
     774:	8f 91       	pop	r24
     776:	0f 90       	pop	r0
     778:	0f be       	out	0x3f, r0	; 63
     77a:	0f 90       	pop	r0
     77c:	1f 90       	pop	r1
     77e:	18 95       	reti

00000780 <decide_mode>:
	

void decide_mode()
{
		if(0x04==(PIND & 0x04)){
     780:	82 9b       	sbis	0x10, 2	; 16
     782:	07 c0       	rjmp	.+14     	; 0x792 <decide_mode+0x12>
				auto_mode=1;
     784:	81 e0       	ldi	r24, 0x01	; 1
     786:	90 e0       	ldi	r25, 0x00	; 0
     788:	90 93 77 01 	sts	0x0177, r25
     78c:	80 93 76 01 	sts	0x0176, r24
     790:	08 95       	ret
		}
		else if(0x00==(PIND & 0x04)){
     792:	82 99       	sbic	0x10, 2	; 16
     794:	04 c0       	rjmp	.+8      	; 0x79e <decide_mode+0x1e>
				auto_mode=0;
     796:	10 92 77 01 	sts	0x0177, r1
     79a:	10 92 76 01 	sts	0x0176, r1
     79e:	08 95       	ret

000007a0 <framomvandling>:
	}
	return cmvarde;
		
}

int framomvandling(int sensorvarde){
     7a0:	9c 01       	movw	r18, r24
	
	int cmvarde;

	if(sensorvarde<=127 && sensorvarde>=77){
     7a2:	8d 54       	subi	r24, 0x4D	; 77
     7a4:	90 40       	sbci	r25, 0x00	; 0
     7a6:	c3 97       	sbiw	r24, 0x33	; 51
     7a8:	78 f4       	brcc	.+30     	; 0x7c8 <framomvandling+0x28>
		cmvarde=round((183-sensorvarde)/2.71);
     7aa:	67 eb       	ldi	r22, 0xB7	; 183
     7ac:	70 e0       	ldi	r23, 0x00	; 0
     7ae:	62 1b       	sub	r22, r18
     7b0:	73 0b       	sbc	r23, r19
     7b2:	88 27       	eor	r24, r24
     7b4:	77 fd       	sbrc	r23, 7
     7b6:	80 95       	com	r24
     7b8:	98 2f       	mov	r25, r24
     7ba:	0e 94 48 06 	call	0xc90	; 0xc90 <__floatsisf>
     7be:	24 ea       	ldi	r18, 0xA4	; 164
     7c0:	30 e7       	ldi	r19, 0x70	; 112
     7c2:	4d e2       	ldi	r20, 0x2D	; 45
     7c4:	50 e4       	ldi	r21, 0x40	; 64
     7c6:	25 c0       	rjmp	.+74     	; 0x812 <framomvandling+0x72>

	}
	else if(sensorvarde<77 && sensorvarde>=50){
     7c8:	c9 01       	movw	r24, r18
     7ca:	c2 97       	sbiw	r24, 0x32	; 50
     7cc:	4b 97       	sbiw	r24, 0x1b	; 27
     7ce:	78 f4       	brcc	.+30     	; 0x7ee <framomvandling+0x4e>
		cmvarde=round((128-sensorvarde)/1.31);
     7d0:	60 e8       	ldi	r22, 0x80	; 128
     7d2:	70 e0       	ldi	r23, 0x00	; 0
     7d4:	62 1b       	sub	r22, r18
     7d6:	73 0b       	sbc	r23, r19
     7d8:	88 27       	eor	r24, r24
     7da:	77 fd       	sbrc	r23, 7
     7dc:	80 95       	com	r24
     7de:	98 2f       	mov	r25, r24
     7e0:	0e 94 48 06 	call	0xc90	; 0xc90 <__floatsisf>
     7e4:	24 e1       	ldi	r18, 0x14	; 20
     7e6:	3e ea       	ldi	r19, 0xAE	; 174
     7e8:	47 ea       	ldi	r20, 0xA7	; 167
     7ea:	5f e3       	ldi	r21, 0x3F	; 63
     7ec:	12 c0       	rjmp	.+36     	; 0x812 <framomvandling+0x72>
	}
	else if(sensorvarde<50 && sensorvarde>=26){
     7ee:	c9 01       	movw	r24, r18
     7f0:	4a 97       	sbiw	r24, 0x1a	; 26
     7f2:	48 97       	sbiw	r24, 0x18	; 24
     7f4:	a8 f4       	brcc	.+42     	; 0x820 <framomvandling+0x80>
		cmvarde=round((73-sensorvarde)/0.43);
     7f6:	69 e4       	ldi	r22, 0x49	; 73
     7f8:	70 e0       	ldi	r23, 0x00	; 0
     7fa:	62 1b       	sub	r22, r18
     7fc:	73 0b       	sbc	r23, r19
     7fe:	88 27       	eor	r24, r24
     800:	77 fd       	sbrc	r23, 7
     802:	80 95       	com	r24
     804:	98 2f       	mov	r25, r24
     806:	0e 94 48 06 	call	0xc90	; 0xc90 <__floatsisf>
     80a:	26 ef       	ldi	r18, 0xF6	; 246
     80c:	38 e2       	ldi	r19, 0x28	; 40
     80e:	4c ed       	ldi	r20, 0xDC	; 220
     810:	5e e3       	ldi	r21, 0x3E	; 62
     812:	0e 94 9c 05 	call	0xb38	; 0xb38 <__divsf3>
     816:	0e 94 f4 08 	call	0x11e8	; 0x11e8 <round>
     81a:	0e 94 a6 06 	call	0xd4c	; 0xd4c <__fixsfsi>
     81e:	08 c0       	rjmp	.+16     	; 0x830 <framomvandling+0x90>
	}
	else if(sensorvarde>=128){
     820:	20 38       	cpi	r18, 0x80	; 128
     822:	31 05       	cpc	r19, r1
     824:	1c f4       	brge	.+6      	; 0x82c <framomvandling+0x8c>
     826:	68 e7       	ldi	r22, 0x78	; 120
     828:	70 e0       	ldi	r23, 0x00	; 0
     82a:	02 c0       	rjmp	.+4      	; 0x830 <framomvandling+0x90>
     82c:	64 e1       	ldi	r22, 0x14	; 20
     82e:	70 e0       	ldi	r23, 0x00	; 0
	}
	else{
		cmvarde=120;
	}
	return cmvarde;
}
     830:	cb 01       	movw	r24, r22
     832:	08 95       	ret

00000834 <vansteromvandling_back>:
	}
	return cmvarde;
}

int vansteromvandling_back(int sensorvarde)
{
     834:	9c 01       	movw	r18, r24
	int cmvarde;

	if(sensorvarde<=121 && sensorvarde>=75){
     836:	8b 54       	subi	r24, 0x4B	; 75
     838:	90 40       	sbci	r25, 0x00	; 0
     83a:	8f 97       	sbiw	r24, 0x2f	; 47
     83c:	78 f4       	brcc	.+30     	; 0x85c <vansteromvandling_back+0x28>
		cmvarde=round((171-sensorvarde)/2.44);
     83e:	6b ea       	ldi	r22, 0xAB	; 171
     840:	70 e0       	ldi	r23, 0x00	; 0
     842:	62 1b       	sub	r22, r18
     844:	73 0b       	sbc	r23, r19
     846:	88 27       	eor	r24, r24
     848:	77 fd       	sbrc	r23, 7
     84a:	80 95       	com	r24
     84c:	98 2f       	mov	r25, r24
     84e:	0e 94 48 06 	call	0xc90	; 0xc90 <__floatsisf>
     852:	26 ef       	ldi	r18, 0xF6	; 246
     854:	38 e2       	ldi	r19, 0x28	; 40
     856:	4c e1       	ldi	r20, 0x1C	; 28
     858:	50 e4       	ldi	r21, 0x40	; 64
     85a:	25 c0       	rjmp	.+74     	; 0x8a6 <vansteromvandling_back+0x72>

	}
	else if(sensorvarde<75 && sensorvarde>=50){
     85c:	c9 01       	movw	r24, r18
     85e:	c2 97       	sbiw	r24, 0x32	; 50
     860:	49 97       	sbiw	r24, 0x19	; 25
     862:	78 f4       	brcc	.+30     	; 0x882 <vansteromvandling_back+0x4e>
		cmvarde=round((120-sensorvarde)/1.17);
     864:	68 e7       	ldi	r22, 0x78	; 120
     866:	70 e0       	ldi	r23, 0x00	; 0
     868:	62 1b       	sub	r22, r18
     86a:	73 0b       	sbc	r23, r19
     86c:	88 27       	eor	r24, r24
     86e:	77 fd       	sbrc	r23, 7
     870:	80 95       	com	r24
     872:	98 2f       	mov	r25, r24
     874:	0e 94 48 06 	call	0xc90	; 0xc90 <__floatsisf>
     878:	2f e8       	ldi	r18, 0x8F	; 143
     87a:	32 ec       	ldi	r19, 0xC2	; 194
     87c:	45 e9       	ldi	r20, 0x95	; 149
     87e:	5f e3       	ldi	r21, 0x3F	; 63
     880:	12 c0       	rjmp	.+36     	; 0x8a6 <vansteromvandling_back+0x72>
	}
	else if(sensorvarde<50 && sensorvarde>=23){
     882:	c9 01       	movw	r24, r18
     884:	47 97       	sbiw	r24, 0x17	; 23
     886:	4b 97       	sbiw	r24, 0x1b	; 27
     888:	a8 f4       	brcc	.+42     	; 0x8b4 <vansteromvandling_back+0x80>
		cmvarde=round((73-sensorvarde)/0.4);
     88a:	69 e4       	ldi	r22, 0x49	; 73
     88c:	70 e0       	ldi	r23, 0x00	; 0
     88e:	62 1b       	sub	r22, r18
     890:	73 0b       	sbc	r23, r19
     892:	88 27       	eor	r24, r24
     894:	77 fd       	sbrc	r23, 7
     896:	80 95       	com	r24
     898:	98 2f       	mov	r25, r24
     89a:	0e 94 48 06 	call	0xc90	; 0xc90 <__floatsisf>
     89e:	2d ec       	ldi	r18, 0xCD	; 205
     8a0:	3c ec       	ldi	r19, 0xCC	; 204
     8a2:	4c ec       	ldi	r20, 0xCC	; 204
     8a4:	5e e3       	ldi	r21, 0x3E	; 62
     8a6:	0e 94 9c 05 	call	0xb38	; 0xb38 <__divsf3>
     8aa:	0e 94 f4 08 	call	0x11e8	; 0x11e8 <round>
     8ae:	0e 94 a6 06 	call	0xd4c	; 0xd4c <__fixsfsi>
     8b2:	08 c0       	rjmp	.+16     	; 0x8c4 <vansteromvandling_back+0x90>
	}
	else if(sensorvarde>121){
     8b4:	2a 37       	cpi	r18, 0x7A	; 122
     8b6:	31 05       	cpc	r19, r1
     8b8:	1c f4       	brge	.+6      	; 0x8c0 <vansteromvandling_back+0x8c>
     8ba:	68 e7       	ldi	r22, 0x78	; 120
     8bc:	70 e0       	ldi	r23, 0x00	; 0
     8be:	02 c0       	rjmp	.+4      	; 0x8c4 <vansteromvandling_back+0x90>
     8c0:	64 e1       	ldi	r22, 0x14	; 20
     8c2:	70 e0       	ldi	r23, 0x00	; 0
	else{
		cmvarde=120;
	}
	return cmvarde;
		
}
     8c4:	cb 01       	movw	r24, r22
     8c6:	08 95       	ret

000008c8 <vansteromvandling_front>:
	}
	return cmvarde;
}


int vansteromvandling_front(int sensorvarde){
     8c8:	9c 01       	movw	r18, r24
	
	int cmvarde;

	if(sensorvarde<=125 && sensorvarde>=78){
     8ca:	8e 54       	subi	r24, 0x4E	; 78
     8cc:	90 40       	sbci	r25, 0x00	; 0
     8ce:	c0 97       	sbiw	r24, 0x30	; 48
     8d0:	78 f4       	brcc	.+30     	; 0x8f0 <vansteromvandling_front+0x28>
		cmvarde=round((177-sensorvarde)/2.56);
     8d2:	61 eb       	ldi	r22, 0xB1	; 177
     8d4:	70 e0       	ldi	r23, 0x00	; 0
     8d6:	62 1b       	sub	r22, r18
     8d8:	73 0b       	sbc	r23, r19
     8da:	88 27       	eor	r24, r24
     8dc:	77 fd       	sbrc	r23, 7
     8de:	80 95       	com	r24
     8e0:	98 2f       	mov	r25, r24
     8e2:	0e 94 48 06 	call	0xc90	; 0xc90 <__floatsisf>
     8e6:	2a e0       	ldi	r18, 0x0A	; 10
     8e8:	37 ed       	ldi	r19, 0xD7	; 215
     8ea:	43 e2       	ldi	r20, 0x23	; 35
     8ec:	50 e4       	ldi	r21, 0x40	; 64
     8ee:	25 c0       	rjmp	.+74     	; 0x93a <vansteromvandling_front+0x72>

	}
	else if(sensorvarde<78 && sensorvarde>=46){
     8f0:	c9 01       	movw	r24, r18
     8f2:	8e 97       	sbiw	r24, 0x2e	; 46
     8f4:	80 97       	sbiw	r24, 0x20	; 32
     8f6:	78 f4       	brcc	.+30     	; 0x916 <vansteromvandling_front+0x4e>
		cmvarde=round((125-sensorvarde)/1.26);
     8f8:	6d e7       	ldi	r22, 0x7D	; 125
     8fa:	70 e0       	ldi	r23, 0x00	; 0
     8fc:	62 1b       	sub	r22, r18
     8fe:	73 0b       	sbc	r23, r19
     900:	88 27       	eor	r24, r24
     902:	77 fd       	sbrc	r23, 7
     904:	80 95       	com	r24
     906:	98 2f       	mov	r25, r24
     908:	0e 94 48 06 	call	0xc90	; 0xc90 <__floatsisf>
     90c:	2e ea       	ldi	r18, 0xAE	; 174
     90e:	37 e4       	ldi	r19, 0x47	; 71
     910:	41 ea       	ldi	r20, 0xA1	; 161
     912:	5f e3       	ldi	r21, 0x3F	; 63
     914:	12 c0       	rjmp	.+36     	; 0x93a <vansteromvandling_front+0x72>
	}
	else if(sensorvarde<=45 && sensorvarde>=24){
     916:	c9 01       	movw	r24, r18
     918:	48 97       	sbiw	r24, 0x18	; 24
     91a:	46 97       	sbiw	r24, 0x16	; 22
     91c:	a8 f4       	brcc	.+42     	; 0x948 <vansteromvandling_front+0x80>
		cmvarde=round((72-sensorvarde)/0.4);
     91e:	68 e4       	ldi	r22, 0x48	; 72
     920:	70 e0       	ldi	r23, 0x00	; 0
     922:	62 1b       	sub	r22, r18
     924:	73 0b       	sbc	r23, r19
     926:	88 27       	eor	r24, r24
     928:	77 fd       	sbrc	r23, 7
     92a:	80 95       	com	r24
     92c:	98 2f       	mov	r25, r24
     92e:	0e 94 48 06 	call	0xc90	; 0xc90 <__floatsisf>
     932:	2d ec       	ldi	r18, 0xCD	; 205
     934:	3c ec       	ldi	r19, 0xCC	; 204
     936:	4c ec       	ldi	r20, 0xCC	; 204
     938:	5e e3       	ldi	r21, 0x3E	; 62
     93a:	0e 94 9c 05 	call	0xb38	; 0xb38 <__divsf3>
     93e:	0e 94 f4 08 	call	0x11e8	; 0x11e8 <round>
     942:	0e 94 a6 06 	call	0xd4c	; 0xd4c <__fixsfsi>
     946:	08 c0       	rjmp	.+16     	; 0x958 <vansteromvandling_front+0x90>
	}
	else if(sensorvarde>125){
     948:	2e 37       	cpi	r18, 0x7E	; 126
     94a:	31 05       	cpc	r19, r1
     94c:	1c f4       	brge	.+6      	; 0x954 <vansteromvandling_front+0x8c>
     94e:	68 e7       	ldi	r22, 0x78	; 120
     950:	70 e0       	ldi	r23, 0x00	; 0
     952:	02 c0       	rjmp	.+4      	; 0x958 <vansteromvandling_front+0x90>
     954:	64 e1       	ldi	r22, 0x14	; 20
     956:	70 e0       	ldi	r23, 0x00	; 0
	}
	else{
		cmvarde=120;
	}
	return cmvarde;
}
     958:	cb 01       	movw	r24, r22
     95a:	08 95       	ret

0000095c <hogeromvandling_back>:
	}
	return cmvarde;
}

int hogeromvandling_back(int sensorvarde)
{		
     95c:	9c 01       	movw	r18, r24
	int cmvarde;

	if(sensorvarde<=127 && sensorvarde>=74){
     95e:	8a 54       	subi	r24, 0x4A	; 74
     960:	90 40       	sbci	r25, 0x00	; 0
     962:	c6 97       	sbiw	r24, 0x36	; 54
     964:	78 f4       	brcc	.+30     	; 0x984 <hogeromvandling_back+0x28>
		cmvarde=round((181-sensorvarde)/2.71);
     966:	65 eb       	ldi	r22, 0xB5	; 181
     968:	70 e0       	ldi	r23, 0x00	; 0
     96a:	62 1b       	sub	r22, r18
     96c:	73 0b       	sbc	r23, r19
     96e:	88 27       	eor	r24, r24
     970:	77 fd       	sbrc	r23, 7
     972:	80 95       	com	r24
     974:	98 2f       	mov	r25, r24
     976:	0e 94 48 06 	call	0xc90	; 0xc90 <__floatsisf>
     97a:	24 ea       	ldi	r18, 0xA4	; 164
     97c:	30 e7       	ldi	r19, 0x70	; 112
     97e:	4d e2       	ldi	r20, 0x2D	; 45
     980:	50 e4       	ldi	r21, 0x40	; 64
     982:	38 c0       	rjmp	.+112    	; 0x9f4 <hogeromvandling_back+0x98>

	}



	else if(sensorvarde<74 && sensorvarde>=50){
     984:	c9 01       	movw	r24, r18
     986:	c2 97       	sbiw	r24, 0x32	; 50
     988:	48 97       	sbiw	r24, 0x18	; 24
     98a:	78 f4       	brcc	.+30     	; 0x9aa <hogeromvandling_back+0x4e>
		cmvarde=round((121-sensorvarde)/1.21);
     98c:	69 e7       	ldi	r22, 0x79	; 121
     98e:	70 e0       	ldi	r23, 0x00	; 0
     990:	62 1b       	sub	r22, r18
     992:	73 0b       	sbc	r23, r19
     994:	88 27       	eor	r24, r24
     996:	77 fd       	sbrc	r23, 7
     998:	80 95       	com	r24
     99a:	98 2f       	mov	r25, r24
     99c:	0e 94 48 06 	call	0xc90	; 0xc90 <__floatsisf>
     9a0:	28 e4       	ldi	r18, 0x48	; 72
     9a2:	31 ee       	ldi	r19, 0xE1	; 225
     9a4:	4a e9       	ldi	r20, 0x9A	; 154
     9a6:	5f e3       	ldi	r21, 0x3F	; 63
     9a8:	25 c0       	rjmp	.+74     	; 0x9f4 <hogeromvandling_back+0x98>
	}
	else if(sensorvarde<50 && sensorvarde>=31){
     9aa:	c9 01       	movw	r24, r18
     9ac:	4f 97       	sbiw	r24, 0x1f	; 31
     9ae:	43 97       	sbiw	r24, 0x13	; 19
     9b0:	78 f4       	brcc	.+30     	; 0x9d0 <hogeromvandling_back+0x74>
		cmvarde=round((86-sensorvarde)/0.62);
     9b2:	66 e5       	ldi	r22, 0x56	; 86
     9b4:	70 e0       	ldi	r23, 0x00	; 0
     9b6:	62 1b       	sub	r22, r18
     9b8:	73 0b       	sbc	r23, r19
     9ba:	88 27       	eor	r24, r24
     9bc:	77 fd       	sbrc	r23, 7
     9be:	80 95       	com	r24
     9c0:	98 2f       	mov	r25, r24
     9c2:	0e 94 48 06 	call	0xc90	; 0xc90 <__floatsisf>
     9c6:	22 e5       	ldi	r18, 0x52	; 82
     9c8:	38 eb       	ldi	r19, 0xB8	; 184
     9ca:	4e e1       	ldi	r20, 0x1E	; 30
     9cc:	5f e3       	ldi	r21, 0x3F	; 63
     9ce:	12 c0       	rjmp	.+36     	; 0x9f4 <hogeromvandling_back+0x98>
	}
	else if(sensorvarde<31 && sensorvarde>=24){
     9d0:	c9 01       	movw	r24, r18
     9d2:	48 97       	sbiw	r24, 0x18	; 24
     9d4:	07 97       	sbiw	r24, 0x07	; 7
     9d6:	a8 f4       	brcc	.+42     	; 0xa02 <hogeromvandling_back+0xa6>
		cmvarde=round((49-sensorvarde)/0.22);
     9d8:	61 e3       	ldi	r22, 0x31	; 49
     9da:	70 e0       	ldi	r23, 0x00	; 0
     9dc:	62 1b       	sub	r22, r18
     9de:	73 0b       	sbc	r23, r19
     9e0:	88 27       	eor	r24, r24
     9e2:	77 fd       	sbrc	r23, 7
     9e4:	80 95       	com	r24
     9e6:	98 2f       	mov	r25, r24
     9e8:	0e 94 48 06 	call	0xc90	; 0xc90 <__floatsisf>
     9ec:	2e ea       	ldi	r18, 0xAE	; 174
     9ee:	37 e4       	ldi	r19, 0x47	; 71
     9f0:	41 e6       	ldi	r20, 0x61	; 97
     9f2:	5e e3       	ldi	r21, 0x3E	; 62
     9f4:	0e 94 9c 05 	call	0xb38	; 0xb38 <__divsf3>
     9f8:	0e 94 f4 08 	call	0x11e8	; 0x11e8 <round>
     9fc:	0e 94 a6 06 	call	0xd4c	; 0xd4c <__fixsfsi>
     a00:	08 c0       	rjmp	.+16     	; 0xa12 <hogeromvandling_back+0xb6>
	}
	else if(sensorvarde>127){
     a02:	20 38       	cpi	r18, 0x80	; 128
     a04:	31 05       	cpc	r19, r1
     a06:	1c f4       	brge	.+6      	; 0xa0e <hogeromvandling_back+0xb2>
     a08:	68 e7       	ldi	r22, 0x78	; 120
     a0a:	70 e0       	ldi	r23, 0x00	; 0
     a0c:	02 c0       	rjmp	.+4      	; 0xa12 <hogeromvandling_back+0xb6>
     a0e:	64 e1       	ldi	r22, 0x14	; 20
     a10:	70 e0       	ldi	r23, 0x00	; 0
	}
	else{
		cmvarde=120;
	}
	return cmvarde;
}
     a12:	cb 01       	movw	r24, r22
     a14:	08 95       	ret

00000a16 <hogeromvandling_front>:
#include<stdlib.h>
#include<math.h>
#include"sensorvarde_omvandling.h"


int hogeromvandling_front(int sensorvarde){
     a16:	9c 01       	movw	r18, r24
	
	int cmvarde;

	if(sensorvarde<=125 && sensorvarde>=75){
     a18:	8b 54       	subi	r24, 0x4B	; 75
     a1a:	90 40       	sbci	r25, 0x00	; 0
     a1c:	c3 97       	sbiw	r24, 0x33	; 51
     a1e:	78 f4       	brcc	.+30     	; 0xa3e <hogeromvandling_front+0x28>
		cmvarde=round((177-sensorvarde)/2.62);
     a20:	61 eb       	ldi	r22, 0xB1	; 177
     a22:	70 e0       	ldi	r23, 0x00	; 0
     a24:	62 1b       	sub	r22, r18
     a26:	73 0b       	sbc	r23, r19
     a28:	88 27       	eor	r24, r24
     a2a:	77 fd       	sbrc	r23, 7
     a2c:	80 95       	com	r24
     a2e:	98 2f       	mov	r25, r24
     a30:	0e 94 48 06 	call	0xc90	; 0xc90 <__floatsisf>
     a34:	24 e1       	ldi	r18, 0x14	; 20
     a36:	3e ea       	ldi	r19, 0xAE	; 174
     a38:	47 e2       	ldi	r20, 0x27	; 39
     a3a:	50 e4       	ldi	r21, 0x40	; 64
     a3c:	25 c0       	rjmp	.+74     	; 0xa88 <hogeromvandling_front+0x72>

	}
	else if(sensorvarde<75 && sensorvarde>=50){
     a3e:	c9 01       	movw	r24, r18
     a40:	c2 97       	sbiw	r24, 0x32	; 50
     a42:	49 97       	sbiw	r24, 0x19	; 25
     a44:	78 f4       	brcc	.+30     	; 0xa64 <hogeromvandling_front+0x4e>
		cmvarde=round((123-sensorvarde)/1.25);
     a46:	6b e7       	ldi	r22, 0x7B	; 123
     a48:	70 e0       	ldi	r23, 0x00	; 0
     a4a:	62 1b       	sub	r22, r18
     a4c:	73 0b       	sbc	r23, r19
     a4e:	88 27       	eor	r24, r24
     a50:	77 fd       	sbrc	r23, 7
     a52:	80 95       	com	r24
     a54:	98 2f       	mov	r25, r24
     a56:	0e 94 48 06 	call	0xc90	; 0xc90 <__floatsisf>
     a5a:	20 e0       	ldi	r18, 0x00	; 0
     a5c:	30 e0       	ldi	r19, 0x00	; 0
     a5e:	40 ea       	ldi	r20, 0xA0	; 160
     a60:	5f e3       	ldi	r21, 0x3F	; 63
     a62:	12 c0       	rjmp	.+36     	; 0xa88 <hogeromvandling_front+0x72>
	}
	else if(sensorvarde<50 && sensorvarde>=25){
     a64:	c9 01       	movw	r24, r18
     a66:	49 97       	sbiw	r24, 0x19	; 25
     a68:	49 97       	sbiw	r24, 0x19	; 25
     a6a:	a8 f4       	brcc	.+42     	; 0xa96 <hogeromvandling_front+0x80>
		cmvarde=round((70-sensorvarde)/0.39);
     a6c:	66 e4       	ldi	r22, 0x46	; 70
     a6e:	70 e0       	ldi	r23, 0x00	; 0
     a70:	62 1b       	sub	r22, r18
     a72:	73 0b       	sbc	r23, r19
     a74:	88 27       	eor	r24, r24
     a76:	77 fd       	sbrc	r23, 7
     a78:	80 95       	com	r24
     a7a:	98 2f       	mov	r25, r24
     a7c:	0e 94 48 06 	call	0xc90	; 0xc90 <__floatsisf>
     a80:	24 e1       	ldi	r18, 0x14	; 20
     a82:	3e ea       	ldi	r19, 0xAE	; 174
     a84:	47 ec       	ldi	r20, 0xC7	; 199
     a86:	5e e3       	ldi	r21, 0x3E	; 62
     a88:	0e 94 9c 05 	call	0xb38	; 0xb38 <__divsf3>
     a8c:	0e 94 f4 08 	call	0x11e8	; 0x11e8 <round>
     a90:	0e 94 a6 06 	call	0xd4c	; 0xd4c <__fixsfsi>
     a94:	08 c0       	rjmp	.+16     	; 0xaa6 <hogeromvandling_front+0x90>
	}
	else if(sensorvarde>125){
     a96:	2e 37       	cpi	r18, 0x7E	; 126
     a98:	31 05       	cpc	r19, r1
     a9a:	1c f4       	brge	.+6      	; 0xaa2 <hogeromvandling_front+0x8c>
     a9c:	68 e7       	ldi	r22, 0x78	; 120
     a9e:	70 e0       	ldi	r23, 0x00	; 0
     aa0:	02 c0       	rjmp	.+4      	; 0xaa6 <hogeromvandling_front+0x90>
     aa2:	64 e1       	ldi	r22, 0x14	; 20
     aa4:	70 e0       	ldi	r23, 0x00	; 0
	}
	else{
		cmvarde=120;
	}
	return cmvarde;
}
     aa6:	cb 01       	movw	r24, r22
     aa8:	08 95       	ret

00000aaa <set_next_special_command>:
 *      input: command
 *  s√§tter next_special_command till command
 *-----------------------------------------------------------------------------*/
void set_next_special_command(unsigned char command)
{
        next_special_command = command;
     aaa:	80 93 81 01 	sts	0x0181, r24
}
     aae:	08 95       	ret

00000ab0 <get_next_special_command>:
 *  returnerar n√§sta specialkommando
 *-----------------------------------------------------------------------------*/
unsigned char get_next_special_command()
{
        return next_special_command;
}
     ab0:	80 91 81 01 	lds	r24, 0x0181
     ab4:	08 95       	ret

00000ab6 <generate_special_command>:
 *      
 *-----------------------------------------------------------------------------*/
void generate_special_command(unsigned char command_code)
{
        unsigned char special_command = 0xE0;
        switch(command_code){
     ab6:	82 30       	cpi	r24, 0x02	; 2
     ab8:	61 f0       	breq	.+24     	; 0xad2 <generate_special_command+0x1c>
     aba:	83 30       	cpi	r24, 0x03	; 3
     abc:	18 f4       	brcc	.+6      	; 0xac4 <generate_special_command+0xe>
     abe:	81 30       	cpi	r24, 0x01	; 1
     ac0:	81 f4       	brne	.+32     	; 0xae2 <generate_special_command+0x2c>
     ac2:	05 c0       	rjmp	.+10     	; 0xace <generate_special_command+0x18>
     ac4:	83 30       	cpi	r24, 0x03	; 3
     ac6:	39 f0       	breq	.+14     	; 0xad6 <generate_special_command+0x20>
     ac8:	84 30       	cpi	r24, 0x04	; 4
     aca:	59 f4       	brne	.+22     	; 0xae2 <generate_special_command+0x2c>
     acc:	08 c0       	rjmp	.+16     	; 0xade <generate_special_command+0x28>
 *      input: command
 *  s√§tter next_special_command till command
 *-----------------------------------------------------------------------------*/
void set_next_special_command(unsigned char command)
{
        next_special_command = command;
     ace:	80 e6       	ldi	r24, 0x60	; 96
     ad0:	03 c0       	rjmp	.+6      	; 0xad8 <generate_special_command+0x22>
 *-----------------------------------------------------------------------------*/

int search_for_crossroad(){


		if((dist_right_front>=60 && dist_left_front>=60) || (dist_front>=60 && dist_left_front>=60) || (dist_front>=60 && dist_right_front>=60)){
     ad2:	80 e4       	ldi	r24, 0x40	; 64
     ad4:	01 c0       	rjmp	.+2      	; 0xad8 <generate_special_command+0x22>
     ad6:	80 e2       	ldi	r24, 0x20	; 32
     ad8:	80 93 81 01 	sts	0x0181, r24
     adc:	08 95       	ret
     ade:	10 92 81 01 	sts	0x0181, r1
     ae2:	08 95       	ret

00000ae4 <search_for_crossroad>:
     ae4:	20 91 75 01 	lds	r18, 0x0175
     ae8:	2c 33       	cpi	r18, 0x3C	; 60
     aea:	20 f4       	brcc	.+8      	; 0xaf4 <search_for_crossroad+0x10>
     aec:	80 91 7f 01 	lds	r24, 0x017F
     af0:	8c 33       	cpi	r24, 0x3C	; 60
     af2:	38 f0       	brcs	.+14     	; 0xb02 <search_for_crossroad+0x1e>
     af4:	80 91 80 01 	lds	r24, 0x0180
     af8:	8c 33       	cpi	r24, 0x3C	; 60
     afa:	18 f0       	brcs	.+6      	; 0xb02 <search_for_crossroad+0x1e>
     afc:	21 e0       	ldi	r18, 0x01	; 1
     afe:	30 e0       	ldi	r19, 0x00	; 0
     b00:	0e c0       	rjmp	.+28     	; 0xb1e <search_for_crossroad+0x3a>
     b02:	80 91 7f 01 	lds	r24, 0x017F
     b06:	8c 33       	cpi	r24, 0x3C	; 60
     b08:	18 f4       	brcc	.+6      	; 0xb10 <search_for_crossroad+0x2c>
     b0a:	20 e0       	ldi	r18, 0x00	; 0
     b0c:	30 e0       	ldi	r19, 0x00	; 0
     b0e:	07 c0       	rjmp	.+14     	; 0xb1e <search_for_crossroad+0x3a>
     b10:	80 e0       	ldi	r24, 0x00	; 0
     b12:	90 e0       	ldi	r25, 0x00	; 0
     b14:	2c 33       	cpi	r18, 0x3C	; 60
     b16:	10 f0       	brcs	.+4      	; 0xb1c <search_for_crossroad+0x38>
     b18:	81 e0       	ldi	r24, 0x01	; 1
     b1a:	90 e0       	ldi	r25, 0x00	; 0
     b1c:	9c 01       	movw	r18, r24
				return 1;
		}
		else{
				return 0;
		}
}
     b1e:	c9 01       	movw	r24, r18
     b20:	08 95       	ret

00000b22 <send_special_command>:
 *                      0x02 - k√∂r rakt fram
 *                      0x04 - sv√§ng v√§nster
 *                      0x06 - sv√§ng h√∂ger
 *-----------------------------------------------------------------------------*/
void send_special_command(unsigned char command)
{
     b22:	98 2f       	mov	r25, r24
        if(command == 0xE0){
     b24:	80 3e       	cpi	r24, 0xE0	; 224
     b26:	39 f0       	breq	.+14     	; 0xb36 <send_special_command+0x14>

                return;
        } else {
                header = 0xCF;
     b28:	8f ec       	ldi	r24, 0xCF	; 207
     b2a:	80 93 7c 01 	sts	0x017C, r24
                data = command;
     b2e:	90 93 78 01 	sts	0x0178, r25
		//printf("Header is %x\n", header);
		//printf("Data is %x\n", data);
                req_sending();
     b32:	0e 94 72 03 	call	0x6e4	; 0x6e4 <req_sending>
     b36:	08 95       	ret

00000b38 <__divsf3>:
     b38:	a8 e1       	ldi	r26, 0x18	; 24
     b3a:	b0 e0       	ldi	r27, 0x00	; 0
     b3c:	e2 ea       	ldi	r30, 0xA2	; 162
     b3e:	f5 e0       	ldi	r31, 0x05	; 5
     b40:	0c 94 c5 08 	jmp	0x118a	; 0x118a <__prologue_saves__+0x10>
     b44:	69 83       	std	Y+1, r22	; 0x01
     b46:	7a 83       	std	Y+2, r23	; 0x02
     b48:	8b 83       	std	Y+3, r24	; 0x03
     b4a:	9c 83       	std	Y+4, r25	; 0x04
     b4c:	2d 83       	std	Y+5, r18	; 0x05
     b4e:	3e 83       	std	Y+6, r19	; 0x06
     b50:	4f 83       	std	Y+7, r20	; 0x07
     b52:	58 87       	std	Y+8, r21	; 0x08
     b54:	b9 e0       	ldi	r27, 0x09	; 9
     b56:	eb 2e       	mov	r14, r27
     b58:	f1 2c       	mov	r15, r1
     b5a:	ec 0e       	add	r14, r28
     b5c:	fd 1e       	adc	r15, r29
     b5e:	ce 01       	movw	r24, r28
     b60:	01 96       	adiw	r24, 0x01	; 1
     b62:	b7 01       	movw	r22, r14
     b64:	0e 94 1e 08 	call	0x103c	; 0x103c <__unpack_f>
     b68:	8e 01       	movw	r16, r28
     b6a:	0f 5e       	subi	r16, 0xEF	; 239
     b6c:	1f 4f       	sbci	r17, 0xFF	; 255
     b6e:	ce 01       	movw	r24, r28
     b70:	05 96       	adiw	r24, 0x05	; 5
     b72:	b8 01       	movw	r22, r16
     b74:	0e 94 1e 08 	call	0x103c	; 0x103c <__unpack_f>
     b78:	29 85       	ldd	r18, Y+9	; 0x09
     b7a:	22 30       	cpi	r18, 0x02	; 2
     b7c:	08 f4       	brcc	.+2      	; 0xb80 <__divsf3+0x48>
     b7e:	7e c0       	rjmp	.+252    	; 0xc7c <__divsf3+0x144>
     b80:	39 89       	ldd	r19, Y+17	; 0x11
     b82:	32 30       	cpi	r19, 0x02	; 2
     b84:	10 f4       	brcc	.+4      	; 0xb8a <__divsf3+0x52>
     b86:	b8 01       	movw	r22, r16
     b88:	7c c0       	rjmp	.+248    	; 0xc82 <__divsf3+0x14a>
     b8a:	8a 85       	ldd	r24, Y+10	; 0x0a
     b8c:	9a 89       	ldd	r25, Y+18	; 0x12
     b8e:	89 27       	eor	r24, r25
     b90:	8a 87       	std	Y+10, r24	; 0x0a
     b92:	24 30       	cpi	r18, 0x04	; 4
     b94:	11 f0       	breq	.+4      	; 0xb9a <__divsf3+0x62>
     b96:	22 30       	cpi	r18, 0x02	; 2
     b98:	31 f4       	brne	.+12     	; 0xba6 <__divsf3+0x6e>
     b9a:	23 17       	cp	r18, r19
     b9c:	09 f0       	breq	.+2      	; 0xba0 <__divsf3+0x68>
     b9e:	6e c0       	rjmp	.+220    	; 0xc7c <__divsf3+0x144>
     ba0:	60 e6       	ldi	r22, 0x60	; 96
     ba2:	70 e0       	ldi	r23, 0x00	; 0
     ba4:	6e c0       	rjmp	.+220    	; 0xc82 <__divsf3+0x14a>
     ba6:	34 30       	cpi	r19, 0x04	; 4
     ba8:	39 f4       	brne	.+14     	; 0xbb8 <__divsf3+0x80>
     baa:	1d 86       	std	Y+13, r1	; 0x0d
     bac:	1e 86       	std	Y+14, r1	; 0x0e
     bae:	1f 86       	std	Y+15, r1	; 0x0f
     bb0:	18 8a       	std	Y+16, r1	; 0x10
     bb2:	1c 86       	std	Y+12, r1	; 0x0c
     bb4:	1b 86       	std	Y+11, r1	; 0x0b
     bb6:	04 c0       	rjmp	.+8      	; 0xbc0 <__divsf3+0x88>
     bb8:	32 30       	cpi	r19, 0x02	; 2
     bba:	21 f4       	brne	.+8      	; 0xbc4 <__divsf3+0x8c>
     bbc:	84 e0       	ldi	r24, 0x04	; 4
     bbe:	89 87       	std	Y+9, r24	; 0x09
     bc0:	b7 01       	movw	r22, r14
     bc2:	5f c0       	rjmp	.+190    	; 0xc82 <__divsf3+0x14a>
     bc4:	2b 85       	ldd	r18, Y+11	; 0x0b
     bc6:	3c 85       	ldd	r19, Y+12	; 0x0c
     bc8:	8b 89       	ldd	r24, Y+19	; 0x13
     bca:	9c 89       	ldd	r25, Y+20	; 0x14
     bcc:	28 1b       	sub	r18, r24
     bce:	39 0b       	sbc	r19, r25
     bd0:	3c 87       	std	Y+12, r19	; 0x0c
     bd2:	2b 87       	std	Y+11, r18	; 0x0b
     bd4:	ed 84       	ldd	r14, Y+13	; 0x0d
     bd6:	fe 84       	ldd	r15, Y+14	; 0x0e
     bd8:	0f 85       	ldd	r16, Y+15	; 0x0f
     bda:	18 89       	ldd	r17, Y+16	; 0x10
     bdc:	ad 88       	ldd	r10, Y+21	; 0x15
     bde:	be 88       	ldd	r11, Y+22	; 0x16
     be0:	cf 88       	ldd	r12, Y+23	; 0x17
     be2:	d8 8c       	ldd	r13, Y+24	; 0x18
     be4:	ea 14       	cp	r14, r10
     be6:	fb 04       	cpc	r15, r11
     be8:	0c 05       	cpc	r16, r12
     bea:	1d 05       	cpc	r17, r13
     bec:	40 f4       	brcc	.+16     	; 0xbfe <__divsf3+0xc6>
     bee:	ee 0c       	add	r14, r14
     bf0:	ff 1c       	adc	r15, r15
     bf2:	00 1f       	adc	r16, r16
     bf4:	11 1f       	adc	r17, r17
     bf6:	21 50       	subi	r18, 0x01	; 1
     bf8:	30 40       	sbci	r19, 0x00	; 0
     bfa:	3c 87       	std	Y+12, r19	; 0x0c
     bfc:	2b 87       	std	Y+11, r18	; 0x0b
     bfe:	20 e0       	ldi	r18, 0x00	; 0
     c00:	30 e0       	ldi	r19, 0x00	; 0
     c02:	40 e0       	ldi	r20, 0x00	; 0
     c04:	50 e0       	ldi	r21, 0x00	; 0
     c06:	80 e0       	ldi	r24, 0x00	; 0
     c08:	90 e0       	ldi	r25, 0x00	; 0
     c0a:	a0 e0       	ldi	r26, 0x00	; 0
     c0c:	b0 e4       	ldi	r27, 0x40	; 64
     c0e:	60 e0       	ldi	r22, 0x00	; 0
     c10:	70 e0       	ldi	r23, 0x00	; 0
     c12:	ea 14       	cp	r14, r10
     c14:	fb 04       	cpc	r15, r11
     c16:	0c 05       	cpc	r16, r12
     c18:	1d 05       	cpc	r17, r13
     c1a:	40 f0       	brcs	.+16     	; 0xc2c <__divsf3+0xf4>
     c1c:	28 2b       	or	r18, r24
     c1e:	39 2b       	or	r19, r25
     c20:	4a 2b       	or	r20, r26
     c22:	5b 2b       	or	r21, r27
     c24:	ea 18       	sub	r14, r10
     c26:	fb 08       	sbc	r15, r11
     c28:	0c 09       	sbc	r16, r12
     c2a:	1d 09       	sbc	r17, r13
     c2c:	b6 95       	lsr	r27
     c2e:	a7 95       	ror	r26
     c30:	97 95       	ror	r25
     c32:	87 95       	ror	r24
     c34:	ee 0c       	add	r14, r14
     c36:	ff 1c       	adc	r15, r15
     c38:	00 1f       	adc	r16, r16
     c3a:	11 1f       	adc	r17, r17
     c3c:	6f 5f       	subi	r22, 0xFF	; 255
     c3e:	7f 4f       	sbci	r23, 0xFF	; 255
     c40:	6f 31       	cpi	r22, 0x1F	; 31
     c42:	71 05       	cpc	r23, r1
     c44:	31 f7       	brne	.-52     	; 0xc12 <__divsf3+0xda>
     c46:	da 01       	movw	r26, r20
     c48:	c9 01       	movw	r24, r18
     c4a:	8f 77       	andi	r24, 0x7F	; 127
     c4c:	90 70       	andi	r25, 0x00	; 0
     c4e:	a0 70       	andi	r26, 0x00	; 0
     c50:	b0 70       	andi	r27, 0x00	; 0
     c52:	80 34       	cpi	r24, 0x40	; 64
     c54:	91 05       	cpc	r25, r1
     c56:	a1 05       	cpc	r26, r1
     c58:	b1 05       	cpc	r27, r1
     c5a:	61 f4       	brne	.+24     	; 0xc74 <__divsf3+0x13c>
     c5c:	27 fd       	sbrc	r18, 7
     c5e:	0a c0       	rjmp	.+20     	; 0xc74 <__divsf3+0x13c>
     c60:	e1 14       	cp	r14, r1
     c62:	f1 04       	cpc	r15, r1
     c64:	01 05       	cpc	r16, r1
     c66:	11 05       	cpc	r17, r1
     c68:	29 f0       	breq	.+10     	; 0xc74 <__divsf3+0x13c>
     c6a:	20 5c       	subi	r18, 0xC0	; 192
     c6c:	3f 4f       	sbci	r19, 0xFF	; 255
     c6e:	4f 4f       	sbci	r20, 0xFF	; 255
     c70:	5f 4f       	sbci	r21, 0xFF	; 255
     c72:	20 78       	andi	r18, 0x80	; 128
     c74:	2d 87       	std	Y+13, r18	; 0x0d
     c76:	3e 87       	std	Y+14, r19	; 0x0e
     c78:	4f 87       	std	Y+15, r20	; 0x0f
     c7a:	58 8b       	std	Y+16, r21	; 0x10
     c7c:	be 01       	movw	r22, r28
     c7e:	67 5f       	subi	r22, 0xF7	; 247
     c80:	7f 4f       	sbci	r23, 0xFF	; 255
     c82:	cb 01       	movw	r24, r22
     c84:	0e 94 49 07 	call	0xe92	; 0xe92 <__pack_f>
     c88:	68 96       	adiw	r28, 0x18	; 24
     c8a:	ea e0       	ldi	r30, 0x0A	; 10
     c8c:	0c 94 e1 08 	jmp	0x11c2	; 0x11c2 <__epilogue_restores__+0x10>

00000c90 <__floatsisf>:
     c90:	a8 e0       	ldi	r26, 0x08	; 8
     c92:	b0 e0       	ldi	r27, 0x00	; 0
     c94:	ee e4       	ldi	r30, 0x4E	; 78
     c96:	f6 e0       	ldi	r31, 0x06	; 6
     c98:	0c 94 c6 08 	jmp	0x118c	; 0x118c <__prologue_saves__+0x12>
     c9c:	9b 01       	movw	r18, r22
     c9e:	ac 01       	movw	r20, r24
     ca0:	83 e0       	ldi	r24, 0x03	; 3
     ca2:	89 83       	std	Y+1, r24	; 0x01
     ca4:	da 01       	movw	r26, r20
     ca6:	c9 01       	movw	r24, r18
     ca8:	88 27       	eor	r24, r24
     caa:	b7 fd       	sbrc	r27, 7
     cac:	83 95       	inc	r24
     cae:	99 27       	eor	r25, r25
     cb0:	aa 27       	eor	r26, r26
     cb2:	bb 27       	eor	r27, r27
     cb4:	b8 2e       	mov	r11, r24
     cb6:	21 15       	cp	r18, r1
     cb8:	31 05       	cpc	r19, r1
     cba:	41 05       	cpc	r20, r1
     cbc:	51 05       	cpc	r21, r1
     cbe:	19 f4       	brne	.+6      	; 0xcc6 <__floatsisf+0x36>
     cc0:	82 e0       	ldi	r24, 0x02	; 2
     cc2:	89 83       	std	Y+1, r24	; 0x01
     cc4:	3a c0       	rjmp	.+116    	; 0xd3a <__floatsisf+0xaa>
     cc6:	88 23       	and	r24, r24
     cc8:	a9 f0       	breq	.+42     	; 0xcf4 <__floatsisf+0x64>
     cca:	20 30       	cpi	r18, 0x00	; 0
     ccc:	80 e0       	ldi	r24, 0x00	; 0
     cce:	38 07       	cpc	r19, r24
     cd0:	80 e0       	ldi	r24, 0x00	; 0
     cd2:	48 07       	cpc	r20, r24
     cd4:	80 e8       	ldi	r24, 0x80	; 128
     cd6:	58 07       	cpc	r21, r24
     cd8:	29 f4       	brne	.+10     	; 0xce4 <__floatsisf+0x54>
     cda:	60 e0       	ldi	r22, 0x00	; 0
     cdc:	70 e0       	ldi	r23, 0x00	; 0
     cde:	80 e0       	ldi	r24, 0x00	; 0
     ce0:	9f ec       	ldi	r25, 0xCF	; 207
     ce2:	30 c0       	rjmp	.+96     	; 0xd44 <__floatsisf+0xb4>
     ce4:	ee 24       	eor	r14, r14
     ce6:	ff 24       	eor	r15, r15
     ce8:	87 01       	movw	r16, r14
     cea:	e2 1a       	sub	r14, r18
     cec:	f3 0a       	sbc	r15, r19
     cee:	04 0b       	sbc	r16, r20
     cf0:	15 0b       	sbc	r17, r21
     cf2:	02 c0       	rjmp	.+4      	; 0xcf8 <__floatsisf+0x68>
     cf4:	79 01       	movw	r14, r18
     cf6:	8a 01       	movw	r16, r20
     cf8:	8e e1       	ldi	r24, 0x1E	; 30
     cfa:	c8 2e       	mov	r12, r24
     cfc:	d1 2c       	mov	r13, r1
     cfe:	dc 82       	std	Y+4, r13	; 0x04
     d00:	cb 82       	std	Y+3, r12	; 0x03
     d02:	ed 82       	std	Y+5, r14	; 0x05
     d04:	fe 82       	std	Y+6, r15	; 0x06
     d06:	0f 83       	std	Y+7, r16	; 0x07
     d08:	18 87       	std	Y+8, r17	; 0x08
     d0a:	c8 01       	movw	r24, r16
     d0c:	b7 01       	movw	r22, r14
     d0e:	0e 94 fa 06 	call	0xdf4	; 0xdf4 <__clzsi2>
     d12:	01 97       	sbiw	r24, 0x01	; 1
     d14:	18 16       	cp	r1, r24
     d16:	19 06       	cpc	r1, r25
     d18:	84 f4       	brge	.+32     	; 0xd3a <__floatsisf+0xaa>
     d1a:	08 2e       	mov	r0, r24
     d1c:	04 c0       	rjmp	.+8      	; 0xd26 <__floatsisf+0x96>
     d1e:	ee 0c       	add	r14, r14
     d20:	ff 1c       	adc	r15, r15
     d22:	00 1f       	adc	r16, r16
     d24:	11 1f       	adc	r17, r17
     d26:	0a 94       	dec	r0
     d28:	d2 f7       	brpl	.-12     	; 0xd1e <__floatsisf+0x8e>
     d2a:	ed 82       	std	Y+5, r14	; 0x05
     d2c:	fe 82       	std	Y+6, r15	; 0x06
     d2e:	0f 83       	std	Y+7, r16	; 0x07
     d30:	18 87       	std	Y+8, r17	; 0x08
     d32:	c8 1a       	sub	r12, r24
     d34:	d9 0a       	sbc	r13, r25
     d36:	dc 82       	std	Y+4, r13	; 0x04
     d38:	cb 82       	std	Y+3, r12	; 0x03
     d3a:	ba 82       	std	Y+2, r11	; 0x02
     d3c:	ce 01       	movw	r24, r28
     d3e:	01 96       	adiw	r24, 0x01	; 1
     d40:	0e 94 49 07 	call	0xe92	; 0xe92 <__pack_f>
     d44:	28 96       	adiw	r28, 0x08	; 8
     d46:	e9 e0       	ldi	r30, 0x09	; 9
     d48:	0c 94 e2 08 	jmp	0x11c4	; 0x11c4 <__epilogue_restores__+0x12>

00000d4c <__fixsfsi>:
     d4c:	ac e0       	ldi	r26, 0x0C	; 12
     d4e:	b0 e0       	ldi	r27, 0x00	; 0
     d50:	ec ea       	ldi	r30, 0xAC	; 172
     d52:	f6 e0       	ldi	r31, 0x06	; 6
     d54:	0c 94 cd 08 	jmp	0x119a	; 0x119a <__prologue_saves__+0x20>
     d58:	69 83       	std	Y+1, r22	; 0x01
     d5a:	7a 83       	std	Y+2, r23	; 0x02
     d5c:	8b 83       	std	Y+3, r24	; 0x03
     d5e:	9c 83       	std	Y+4, r25	; 0x04
     d60:	ce 01       	movw	r24, r28
     d62:	01 96       	adiw	r24, 0x01	; 1
     d64:	be 01       	movw	r22, r28
     d66:	6b 5f       	subi	r22, 0xFB	; 251
     d68:	7f 4f       	sbci	r23, 0xFF	; 255
     d6a:	0e 94 1e 08 	call	0x103c	; 0x103c <__unpack_f>
     d6e:	8d 81       	ldd	r24, Y+5	; 0x05
     d70:	82 30       	cpi	r24, 0x02	; 2
     d72:	61 f1       	breq	.+88     	; 0xdcc <__fixsfsi+0x80>
     d74:	82 30       	cpi	r24, 0x02	; 2
     d76:	50 f1       	brcs	.+84     	; 0xdcc <__fixsfsi+0x80>
     d78:	84 30       	cpi	r24, 0x04	; 4
     d7a:	21 f4       	brne	.+8      	; 0xd84 <__fixsfsi+0x38>
     d7c:	8e 81       	ldd	r24, Y+6	; 0x06
     d7e:	88 23       	and	r24, r24
     d80:	51 f1       	breq	.+84     	; 0xdd6 <__fixsfsi+0x8a>
     d82:	2e c0       	rjmp	.+92     	; 0xde0 <__fixsfsi+0x94>
     d84:	2f 81       	ldd	r18, Y+7	; 0x07
     d86:	38 85       	ldd	r19, Y+8	; 0x08
     d88:	37 fd       	sbrc	r19, 7
     d8a:	20 c0       	rjmp	.+64     	; 0xdcc <__fixsfsi+0x80>
     d8c:	6e 81       	ldd	r22, Y+6	; 0x06
     d8e:	2f 31       	cpi	r18, 0x1F	; 31
     d90:	31 05       	cpc	r19, r1
     d92:	1c f0       	brlt	.+6      	; 0xd9a <__fixsfsi+0x4e>
     d94:	66 23       	and	r22, r22
     d96:	f9 f0       	breq	.+62     	; 0xdd6 <__fixsfsi+0x8a>
     d98:	23 c0       	rjmp	.+70     	; 0xde0 <__fixsfsi+0x94>
     d9a:	8e e1       	ldi	r24, 0x1E	; 30
     d9c:	90 e0       	ldi	r25, 0x00	; 0
     d9e:	82 1b       	sub	r24, r18
     da0:	93 0b       	sbc	r25, r19
     da2:	29 85       	ldd	r18, Y+9	; 0x09
     da4:	3a 85       	ldd	r19, Y+10	; 0x0a
     da6:	4b 85       	ldd	r20, Y+11	; 0x0b
     da8:	5c 85       	ldd	r21, Y+12	; 0x0c
     daa:	04 c0       	rjmp	.+8      	; 0xdb4 <__fixsfsi+0x68>
     dac:	56 95       	lsr	r21
     dae:	47 95       	ror	r20
     db0:	37 95       	ror	r19
     db2:	27 95       	ror	r18
     db4:	8a 95       	dec	r24
     db6:	d2 f7       	brpl	.-12     	; 0xdac <__fixsfsi+0x60>
     db8:	66 23       	and	r22, r22
     dba:	b1 f0       	breq	.+44     	; 0xde8 <__fixsfsi+0x9c>
     dbc:	50 95       	com	r21
     dbe:	40 95       	com	r20
     dc0:	30 95       	com	r19
     dc2:	21 95       	neg	r18
     dc4:	3f 4f       	sbci	r19, 0xFF	; 255
     dc6:	4f 4f       	sbci	r20, 0xFF	; 255
     dc8:	5f 4f       	sbci	r21, 0xFF	; 255
     dca:	0e c0       	rjmp	.+28     	; 0xde8 <__fixsfsi+0x9c>
     dcc:	20 e0       	ldi	r18, 0x00	; 0
     dce:	30 e0       	ldi	r19, 0x00	; 0
     dd0:	40 e0       	ldi	r20, 0x00	; 0
     dd2:	50 e0       	ldi	r21, 0x00	; 0
     dd4:	09 c0       	rjmp	.+18     	; 0xde8 <__fixsfsi+0x9c>
     dd6:	2f ef       	ldi	r18, 0xFF	; 255
     dd8:	3f ef       	ldi	r19, 0xFF	; 255
     dda:	4f ef       	ldi	r20, 0xFF	; 255
     ddc:	5f e7       	ldi	r21, 0x7F	; 127
     dde:	04 c0       	rjmp	.+8      	; 0xde8 <__fixsfsi+0x9c>
     de0:	20 e0       	ldi	r18, 0x00	; 0
     de2:	30 e0       	ldi	r19, 0x00	; 0
     de4:	40 e0       	ldi	r20, 0x00	; 0
     de6:	50 e8       	ldi	r21, 0x80	; 128
     de8:	b9 01       	movw	r22, r18
     dea:	ca 01       	movw	r24, r20
     dec:	2c 96       	adiw	r28, 0x0c	; 12
     dee:	e2 e0       	ldi	r30, 0x02	; 2
     df0:	0c 94 e9 08 	jmp	0x11d2	; 0x11d2 <__epilogue_restores__+0x20>

00000df4 <__clzsi2>:
     df4:	ef 92       	push	r14
     df6:	ff 92       	push	r15
     df8:	0f 93       	push	r16
     dfa:	1f 93       	push	r17
     dfc:	7b 01       	movw	r14, r22
     dfe:	8c 01       	movw	r16, r24
     e00:	80 e0       	ldi	r24, 0x00	; 0
     e02:	e8 16       	cp	r14, r24
     e04:	80 e0       	ldi	r24, 0x00	; 0
     e06:	f8 06       	cpc	r15, r24
     e08:	81 e0       	ldi	r24, 0x01	; 1
     e0a:	08 07       	cpc	r16, r24
     e0c:	80 e0       	ldi	r24, 0x00	; 0
     e0e:	18 07       	cpc	r17, r24
     e10:	88 f4       	brcc	.+34     	; 0xe34 <__clzsi2+0x40>
     e12:	8f ef       	ldi	r24, 0xFF	; 255
     e14:	e8 16       	cp	r14, r24
     e16:	f1 04       	cpc	r15, r1
     e18:	01 05       	cpc	r16, r1
     e1a:	11 05       	cpc	r17, r1
     e1c:	31 f0       	breq	.+12     	; 0xe2a <__clzsi2+0x36>
     e1e:	28 f0       	brcs	.+10     	; 0xe2a <__clzsi2+0x36>
     e20:	88 e0       	ldi	r24, 0x08	; 8
     e22:	90 e0       	ldi	r25, 0x00	; 0
     e24:	a0 e0       	ldi	r26, 0x00	; 0
     e26:	b0 e0       	ldi	r27, 0x00	; 0
     e28:	17 c0       	rjmp	.+46     	; 0xe58 <__clzsi2+0x64>
     e2a:	80 e0       	ldi	r24, 0x00	; 0
     e2c:	90 e0       	ldi	r25, 0x00	; 0
     e2e:	a0 e0       	ldi	r26, 0x00	; 0
     e30:	b0 e0       	ldi	r27, 0x00	; 0
     e32:	12 c0       	rjmp	.+36     	; 0xe58 <__clzsi2+0x64>
     e34:	80 e0       	ldi	r24, 0x00	; 0
     e36:	e8 16       	cp	r14, r24
     e38:	80 e0       	ldi	r24, 0x00	; 0
     e3a:	f8 06       	cpc	r15, r24
     e3c:	80 e0       	ldi	r24, 0x00	; 0
     e3e:	08 07       	cpc	r16, r24
     e40:	81 e0       	ldi	r24, 0x01	; 1
     e42:	18 07       	cpc	r17, r24
     e44:	28 f0       	brcs	.+10     	; 0xe50 <__clzsi2+0x5c>
     e46:	88 e1       	ldi	r24, 0x18	; 24
     e48:	90 e0       	ldi	r25, 0x00	; 0
     e4a:	a0 e0       	ldi	r26, 0x00	; 0
     e4c:	b0 e0       	ldi	r27, 0x00	; 0
     e4e:	04 c0       	rjmp	.+8      	; 0xe58 <__clzsi2+0x64>
     e50:	80 e1       	ldi	r24, 0x10	; 16
     e52:	90 e0       	ldi	r25, 0x00	; 0
     e54:	a0 e0       	ldi	r26, 0x00	; 0
     e56:	b0 e0       	ldi	r27, 0x00	; 0
     e58:	20 e2       	ldi	r18, 0x20	; 32
     e5a:	30 e0       	ldi	r19, 0x00	; 0
     e5c:	40 e0       	ldi	r20, 0x00	; 0
     e5e:	50 e0       	ldi	r21, 0x00	; 0
     e60:	28 1b       	sub	r18, r24
     e62:	39 0b       	sbc	r19, r25
     e64:	4a 0b       	sbc	r20, r26
     e66:	5b 0b       	sbc	r21, r27
     e68:	04 c0       	rjmp	.+8      	; 0xe72 <__clzsi2+0x7e>
     e6a:	16 95       	lsr	r17
     e6c:	07 95       	ror	r16
     e6e:	f7 94       	ror	r15
     e70:	e7 94       	ror	r14
     e72:	8a 95       	dec	r24
     e74:	d2 f7       	brpl	.-12     	; 0xe6a <__clzsi2+0x76>
     e76:	f7 01       	movw	r30, r14
     e78:	e8 59       	subi	r30, 0x98	; 152
     e7a:	ff 4f       	sbci	r31, 0xFF	; 255
     e7c:	80 81       	ld	r24, Z
     e7e:	28 1b       	sub	r18, r24
     e80:	31 09       	sbc	r19, r1
     e82:	41 09       	sbc	r20, r1
     e84:	51 09       	sbc	r21, r1
     e86:	c9 01       	movw	r24, r18
     e88:	1f 91       	pop	r17
     e8a:	0f 91       	pop	r16
     e8c:	ff 90       	pop	r15
     e8e:	ef 90       	pop	r14
     e90:	08 95       	ret

00000e92 <__pack_f>:
     e92:	df 92       	push	r13
     e94:	ef 92       	push	r14
     e96:	ff 92       	push	r15
     e98:	0f 93       	push	r16
     e9a:	1f 93       	push	r17
     e9c:	fc 01       	movw	r30, r24
     e9e:	e4 80       	ldd	r14, Z+4	; 0x04
     ea0:	f5 80       	ldd	r15, Z+5	; 0x05
     ea2:	06 81       	ldd	r16, Z+6	; 0x06
     ea4:	17 81       	ldd	r17, Z+7	; 0x07
     ea6:	d1 80       	ldd	r13, Z+1	; 0x01
     ea8:	80 81       	ld	r24, Z
     eaa:	82 30       	cpi	r24, 0x02	; 2
     eac:	48 f4       	brcc	.+18     	; 0xec0 <__pack_f+0x2e>
     eae:	80 e0       	ldi	r24, 0x00	; 0
     eb0:	90 e0       	ldi	r25, 0x00	; 0
     eb2:	a0 e1       	ldi	r26, 0x10	; 16
     eb4:	b0 e0       	ldi	r27, 0x00	; 0
     eb6:	e8 2a       	or	r14, r24
     eb8:	f9 2a       	or	r15, r25
     eba:	0a 2b       	or	r16, r26
     ebc:	1b 2b       	or	r17, r27
     ebe:	a5 c0       	rjmp	.+330    	; 0x100a <__pack_f+0x178>
     ec0:	84 30       	cpi	r24, 0x04	; 4
     ec2:	09 f4       	brne	.+2      	; 0xec6 <__pack_f+0x34>
     ec4:	9f c0       	rjmp	.+318    	; 0x1004 <__pack_f+0x172>
     ec6:	82 30       	cpi	r24, 0x02	; 2
     ec8:	21 f4       	brne	.+8      	; 0xed2 <__pack_f+0x40>
     eca:	ee 24       	eor	r14, r14
     ecc:	ff 24       	eor	r15, r15
     ece:	87 01       	movw	r16, r14
     ed0:	05 c0       	rjmp	.+10     	; 0xedc <__pack_f+0x4a>
     ed2:	e1 14       	cp	r14, r1
     ed4:	f1 04       	cpc	r15, r1
     ed6:	01 05       	cpc	r16, r1
     ed8:	11 05       	cpc	r17, r1
     eda:	19 f4       	brne	.+6      	; 0xee2 <__pack_f+0x50>
     edc:	e0 e0       	ldi	r30, 0x00	; 0
     ede:	f0 e0       	ldi	r31, 0x00	; 0
     ee0:	96 c0       	rjmp	.+300    	; 0x100e <__pack_f+0x17c>
     ee2:	62 81       	ldd	r22, Z+2	; 0x02
     ee4:	73 81       	ldd	r23, Z+3	; 0x03
     ee6:	9f ef       	ldi	r25, 0xFF	; 255
     ee8:	62 38       	cpi	r22, 0x82	; 130
     eea:	79 07       	cpc	r23, r25
     eec:	0c f0       	brlt	.+2      	; 0xef0 <__pack_f+0x5e>
     eee:	5b c0       	rjmp	.+182    	; 0xfa6 <__pack_f+0x114>
     ef0:	22 e8       	ldi	r18, 0x82	; 130
     ef2:	3f ef       	ldi	r19, 0xFF	; 255
     ef4:	26 1b       	sub	r18, r22
     ef6:	37 0b       	sbc	r19, r23
     ef8:	2a 31       	cpi	r18, 0x1A	; 26
     efa:	31 05       	cpc	r19, r1
     efc:	2c f0       	brlt	.+10     	; 0xf08 <__pack_f+0x76>
     efe:	20 e0       	ldi	r18, 0x00	; 0
     f00:	30 e0       	ldi	r19, 0x00	; 0
     f02:	40 e0       	ldi	r20, 0x00	; 0
     f04:	50 e0       	ldi	r21, 0x00	; 0
     f06:	2a c0       	rjmp	.+84     	; 0xf5c <__pack_f+0xca>
     f08:	b8 01       	movw	r22, r16
     f0a:	a7 01       	movw	r20, r14
     f0c:	02 2e       	mov	r0, r18
     f0e:	04 c0       	rjmp	.+8      	; 0xf18 <__pack_f+0x86>
     f10:	76 95       	lsr	r23
     f12:	67 95       	ror	r22
     f14:	57 95       	ror	r21
     f16:	47 95       	ror	r20
     f18:	0a 94       	dec	r0
     f1a:	d2 f7       	brpl	.-12     	; 0xf10 <__pack_f+0x7e>
     f1c:	81 e0       	ldi	r24, 0x01	; 1
     f1e:	90 e0       	ldi	r25, 0x00	; 0
     f20:	a0 e0       	ldi	r26, 0x00	; 0
     f22:	b0 e0       	ldi	r27, 0x00	; 0
     f24:	04 c0       	rjmp	.+8      	; 0xf2e <__pack_f+0x9c>
     f26:	88 0f       	add	r24, r24
     f28:	99 1f       	adc	r25, r25
     f2a:	aa 1f       	adc	r26, r26
     f2c:	bb 1f       	adc	r27, r27
     f2e:	2a 95       	dec	r18
     f30:	d2 f7       	brpl	.-12     	; 0xf26 <__pack_f+0x94>
     f32:	01 97       	sbiw	r24, 0x01	; 1
     f34:	a1 09       	sbc	r26, r1
     f36:	b1 09       	sbc	r27, r1
     f38:	8e 21       	and	r24, r14
     f3a:	9f 21       	and	r25, r15
     f3c:	a0 23       	and	r26, r16
     f3e:	b1 23       	and	r27, r17
     f40:	00 97       	sbiw	r24, 0x00	; 0
     f42:	a1 05       	cpc	r26, r1
     f44:	b1 05       	cpc	r27, r1
     f46:	21 f0       	breq	.+8      	; 0xf50 <__pack_f+0xbe>
     f48:	81 e0       	ldi	r24, 0x01	; 1
     f4a:	90 e0       	ldi	r25, 0x00	; 0
     f4c:	a0 e0       	ldi	r26, 0x00	; 0
     f4e:	b0 e0       	ldi	r27, 0x00	; 0
     f50:	9a 01       	movw	r18, r20
     f52:	ab 01       	movw	r20, r22
     f54:	28 2b       	or	r18, r24
     f56:	39 2b       	or	r19, r25
     f58:	4a 2b       	or	r20, r26
     f5a:	5b 2b       	or	r21, r27
     f5c:	da 01       	movw	r26, r20
     f5e:	c9 01       	movw	r24, r18
     f60:	8f 77       	andi	r24, 0x7F	; 127
     f62:	90 70       	andi	r25, 0x00	; 0
     f64:	a0 70       	andi	r26, 0x00	; 0
     f66:	b0 70       	andi	r27, 0x00	; 0
     f68:	80 34       	cpi	r24, 0x40	; 64
     f6a:	91 05       	cpc	r25, r1
     f6c:	a1 05       	cpc	r26, r1
     f6e:	b1 05       	cpc	r27, r1
     f70:	39 f4       	brne	.+14     	; 0xf80 <__pack_f+0xee>
     f72:	27 ff       	sbrs	r18, 7
     f74:	09 c0       	rjmp	.+18     	; 0xf88 <__pack_f+0xf6>
     f76:	20 5c       	subi	r18, 0xC0	; 192
     f78:	3f 4f       	sbci	r19, 0xFF	; 255
     f7a:	4f 4f       	sbci	r20, 0xFF	; 255
     f7c:	5f 4f       	sbci	r21, 0xFF	; 255
     f7e:	04 c0       	rjmp	.+8      	; 0xf88 <__pack_f+0xf6>
     f80:	21 5c       	subi	r18, 0xC1	; 193
     f82:	3f 4f       	sbci	r19, 0xFF	; 255
     f84:	4f 4f       	sbci	r20, 0xFF	; 255
     f86:	5f 4f       	sbci	r21, 0xFF	; 255
     f88:	e0 e0       	ldi	r30, 0x00	; 0
     f8a:	f0 e0       	ldi	r31, 0x00	; 0
     f8c:	20 30       	cpi	r18, 0x00	; 0
     f8e:	a0 e0       	ldi	r26, 0x00	; 0
     f90:	3a 07       	cpc	r19, r26
     f92:	a0 e0       	ldi	r26, 0x00	; 0
     f94:	4a 07       	cpc	r20, r26
     f96:	a0 e4       	ldi	r26, 0x40	; 64
     f98:	5a 07       	cpc	r21, r26
     f9a:	10 f0       	brcs	.+4      	; 0xfa0 <__pack_f+0x10e>
     f9c:	e1 e0       	ldi	r30, 0x01	; 1
     f9e:	f0 e0       	ldi	r31, 0x00	; 0
     fa0:	79 01       	movw	r14, r18
     fa2:	8a 01       	movw	r16, r20
     fa4:	27 c0       	rjmp	.+78     	; 0xff4 <__pack_f+0x162>
     fa6:	60 38       	cpi	r22, 0x80	; 128
     fa8:	71 05       	cpc	r23, r1
     faa:	64 f5       	brge	.+88     	; 0x1004 <__pack_f+0x172>
     fac:	fb 01       	movw	r30, r22
     fae:	e1 58       	subi	r30, 0x81	; 129
     fb0:	ff 4f       	sbci	r31, 0xFF	; 255
     fb2:	d8 01       	movw	r26, r16
     fb4:	c7 01       	movw	r24, r14
     fb6:	8f 77       	andi	r24, 0x7F	; 127
     fb8:	90 70       	andi	r25, 0x00	; 0
     fba:	a0 70       	andi	r26, 0x00	; 0
     fbc:	b0 70       	andi	r27, 0x00	; 0
     fbe:	80 34       	cpi	r24, 0x40	; 64
     fc0:	91 05       	cpc	r25, r1
     fc2:	a1 05       	cpc	r26, r1
     fc4:	b1 05       	cpc	r27, r1
     fc6:	39 f4       	brne	.+14     	; 0xfd6 <__pack_f+0x144>
     fc8:	e7 fe       	sbrs	r14, 7
     fca:	0d c0       	rjmp	.+26     	; 0xfe6 <__pack_f+0x154>
     fcc:	80 e4       	ldi	r24, 0x40	; 64
     fce:	90 e0       	ldi	r25, 0x00	; 0
     fd0:	a0 e0       	ldi	r26, 0x00	; 0
     fd2:	b0 e0       	ldi	r27, 0x00	; 0
     fd4:	04 c0       	rjmp	.+8      	; 0xfde <__pack_f+0x14c>
     fd6:	8f e3       	ldi	r24, 0x3F	; 63
     fd8:	90 e0       	ldi	r25, 0x00	; 0
     fda:	a0 e0       	ldi	r26, 0x00	; 0
     fdc:	b0 e0       	ldi	r27, 0x00	; 0
     fde:	e8 0e       	add	r14, r24
     fe0:	f9 1e       	adc	r15, r25
     fe2:	0a 1f       	adc	r16, r26
     fe4:	1b 1f       	adc	r17, r27
     fe6:	17 ff       	sbrs	r17, 7
     fe8:	05 c0       	rjmp	.+10     	; 0xff4 <__pack_f+0x162>
     fea:	16 95       	lsr	r17
     fec:	07 95       	ror	r16
     fee:	f7 94       	ror	r15
     ff0:	e7 94       	ror	r14
     ff2:	31 96       	adiw	r30, 0x01	; 1
     ff4:	87 e0       	ldi	r24, 0x07	; 7
     ff6:	16 95       	lsr	r17
     ff8:	07 95       	ror	r16
     ffa:	f7 94       	ror	r15
     ffc:	e7 94       	ror	r14
     ffe:	8a 95       	dec	r24
    1000:	d1 f7       	brne	.-12     	; 0xff6 <__pack_f+0x164>
    1002:	05 c0       	rjmp	.+10     	; 0x100e <__pack_f+0x17c>
    1004:	ee 24       	eor	r14, r14
    1006:	ff 24       	eor	r15, r15
    1008:	87 01       	movw	r16, r14
    100a:	ef ef       	ldi	r30, 0xFF	; 255
    100c:	f0 e0       	ldi	r31, 0x00	; 0
    100e:	6e 2f       	mov	r22, r30
    1010:	67 95       	ror	r22
    1012:	66 27       	eor	r22, r22
    1014:	67 95       	ror	r22
    1016:	90 2f       	mov	r25, r16
    1018:	9f 77       	andi	r25, 0x7F	; 127
    101a:	d7 94       	ror	r13
    101c:	dd 24       	eor	r13, r13
    101e:	d7 94       	ror	r13
    1020:	8e 2f       	mov	r24, r30
    1022:	86 95       	lsr	r24
    1024:	49 2f       	mov	r20, r25
    1026:	46 2b       	or	r20, r22
    1028:	58 2f       	mov	r21, r24
    102a:	5d 29       	or	r21, r13
    102c:	b7 01       	movw	r22, r14
    102e:	ca 01       	movw	r24, r20
    1030:	1f 91       	pop	r17
    1032:	0f 91       	pop	r16
    1034:	ff 90       	pop	r15
    1036:	ef 90       	pop	r14
    1038:	df 90       	pop	r13
    103a:	08 95       	ret

0000103c <__unpack_f>:
    103c:	fc 01       	movw	r30, r24
    103e:	db 01       	movw	r26, r22
    1040:	40 81       	ld	r20, Z
    1042:	51 81       	ldd	r21, Z+1	; 0x01
    1044:	22 81       	ldd	r18, Z+2	; 0x02
    1046:	62 2f       	mov	r22, r18
    1048:	6f 77       	andi	r22, 0x7F	; 127
    104a:	70 e0       	ldi	r23, 0x00	; 0
    104c:	22 1f       	adc	r18, r18
    104e:	22 27       	eor	r18, r18
    1050:	22 1f       	adc	r18, r18
    1052:	93 81       	ldd	r25, Z+3	; 0x03
    1054:	89 2f       	mov	r24, r25
    1056:	88 0f       	add	r24, r24
    1058:	82 2b       	or	r24, r18
    105a:	28 2f       	mov	r18, r24
    105c:	30 e0       	ldi	r19, 0x00	; 0
    105e:	99 1f       	adc	r25, r25
    1060:	99 27       	eor	r25, r25
    1062:	99 1f       	adc	r25, r25
    1064:	11 96       	adiw	r26, 0x01	; 1
    1066:	9c 93       	st	X, r25
    1068:	11 97       	sbiw	r26, 0x01	; 1
    106a:	21 15       	cp	r18, r1
    106c:	31 05       	cpc	r19, r1
    106e:	a9 f5       	brne	.+106    	; 0x10da <__unpack_f+0x9e>
    1070:	41 15       	cp	r20, r1
    1072:	51 05       	cpc	r21, r1
    1074:	61 05       	cpc	r22, r1
    1076:	71 05       	cpc	r23, r1
    1078:	11 f4       	brne	.+4      	; 0x107e <__unpack_f+0x42>
    107a:	82 e0       	ldi	r24, 0x02	; 2
    107c:	37 c0       	rjmp	.+110    	; 0x10ec <__unpack_f+0xb0>
    107e:	82 e8       	ldi	r24, 0x82	; 130
    1080:	9f ef       	ldi	r25, 0xFF	; 255
    1082:	13 96       	adiw	r26, 0x03	; 3
    1084:	9c 93       	st	X, r25
    1086:	8e 93       	st	-X, r24
    1088:	12 97       	sbiw	r26, 0x02	; 2
    108a:	9a 01       	movw	r18, r20
    108c:	ab 01       	movw	r20, r22
    108e:	67 e0       	ldi	r22, 0x07	; 7
    1090:	22 0f       	add	r18, r18
    1092:	33 1f       	adc	r19, r19
    1094:	44 1f       	adc	r20, r20
    1096:	55 1f       	adc	r21, r21
    1098:	6a 95       	dec	r22
    109a:	d1 f7       	brne	.-12     	; 0x1090 <__unpack_f+0x54>
    109c:	83 e0       	ldi	r24, 0x03	; 3
    109e:	8c 93       	st	X, r24
    10a0:	0d c0       	rjmp	.+26     	; 0x10bc <__unpack_f+0x80>
    10a2:	22 0f       	add	r18, r18
    10a4:	33 1f       	adc	r19, r19
    10a6:	44 1f       	adc	r20, r20
    10a8:	55 1f       	adc	r21, r21
    10aa:	12 96       	adiw	r26, 0x02	; 2
    10ac:	8d 91       	ld	r24, X+
    10ae:	9c 91       	ld	r25, X
    10b0:	13 97       	sbiw	r26, 0x03	; 3
    10b2:	01 97       	sbiw	r24, 0x01	; 1
    10b4:	13 96       	adiw	r26, 0x03	; 3
    10b6:	9c 93       	st	X, r25
    10b8:	8e 93       	st	-X, r24
    10ba:	12 97       	sbiw	r26, 0x02	; 2
    10bc:	20 30       	cpi	r18, 0x00	; 0
    10be:	80 e0       	ldi	r24, 0x00	; 0
    10c0:	38 07       	cpc	r19, r24
    10c2:	80 e0       	ldi	r24, 0x00	; 0
    10c4:	48 07       	cpc	r20, r24
    10c6:	80 e4       	ldi	r24, 0x40	; 64
    10c8:	58 07       	cpc	r21, r24
    10ca:	58 f3       	brcs	.-42     	; 0x10a2 <__unpack_f+0x66>
    10cc:	14 96       	adiw	r26, 0x04	; 4
    10ce:	2d 93       	st	X+, r18
    10d0:	3d 93       	st	X+, r19
    10d2:	4d 93       	st	X+, r20
    10d4:	5c 93       	st	X, r21
    10d6:	17 97       	sbiw	r26, 0x07	; 7
    10d8:	08 95       	ret
    10da:	2f 3f       	cpi	r18, 0xFF	; 255
    10dc:	31 05       	cpc	r19, r1
    10de:	79 f4       	brne	.+30     	; 0x10fe <__unpack_f+0xc2>
    10e0:	41 15       	cp	r20, r1
    10e2:	51 05       	cpc	r21, r1
    10e4:	61 05       	cpc	r22, r1
    10e6:	71 05       	cpc	r23, r1
    10e8:	19 f4       	brne	.+6      	; 0x10f0 <__unpack_f+0xb4>
    10ea:	84 e0       	ldi	r24, 0x04	; 4
    10ec:	8c 93       	st	X, r24
    10ee:	08 95       	ret
    10f0:	64 ff       	sbrs	r22, 4
    10f2:	03 c0       	rjmp	.+6      	; 0x10fa <__unpack_f+0xbe>
    10f4:	81 e0       	ldi	r24, 0x01	; 1
    10f6:	8c 93       	st	X, r24
    10f8:	12 c0       	rjmp	.+36     	; 0x111e <__unpack_f+0xe2>
    10fa:	1c 92       	st	X, r1
    10fc:	10 c0       	rjmp	.+32     	; 0x111e <__unpack_f+0xe2>
    10fe:	2f 57       	subi	r18, 0x7F	; 127
    1100:	30 40       	sbci	r19, 0x00	; 0
    1102:	13 96       	adiw	r26, 0x03	; 3
    1104:	3c 93       	st	X, r19
    1106:	2e 93       	st	-X, r18
    1108:	12 97       	sbiw	r26, 0x02	; 2
    110a:	83 e0       	ldi	r24, 0x03	; 3
    110c:	8c 93       	st	X, r24
    110e:	87 e0       	ldi	r24, 0x07	; 7
    1110:	44 0f       	add	r20, r20
    1112:	55 1f       	adc	r21, r21
    1114:	66 1f       	adc	r22, r22
    1116:	77 1f       	adc	r23, r23
    1118:	8a 95       	dec	r24
    111a:	d1 f7       	brne	.-12     	; 0x1110 <__unpack_f+0xd4>
    111c:	70 64       	ori	r23, 0x40	; 64
    111e:	14 96       	adiw	r26, 0x04	; 4
    1120:	4d 93       	st	X+, r20
    1122:	5d 93       	st	X+, r21
    1124:	6d 93       	st	X+, r22
    1126:	7c 93       	st	X, r23
    1128:	17 97       	sbiw	r26, 0x07	; 7
    112a:	08 95       	ret

0000112c <__divmodhi4>:
    112c:	97 fb       	bst	r25, 7
    112e:	09 2e       	mov	r0, r25
    1130:	07 26       	eor	r0, r23
    1132:	0a d0       	rcall	.+20     	; 0x1148 <__divmodhi4_neg1>
    1134:	77 fd       	sbrc	r23, 7
    1136:	04 d0       	rcall	.+8      	; 0x1140 <__divmodhi4_neg2>
    1138:	0c d0       	rcall	.+24     	; 0x1152 <__udivmodhi4>
    113a:	06 d0       	rcall	.+12     	; 0x1148 <__divmodhi4_neg1>
    113c:	00 20       	and	r0, r0
    113e:	1a f4       	brpl	.+6      	; 0x1146 <__divmodhi4_exit>

00001140 <__divmodhi4_neg2>:
    1140:	70 95       	com	r23
    1142:	61 95       	neg	r22
    1144:	7f 4f       	sbci	r23, 0xFF	; 255

00001146 <__divmodhi4_exit>:
    1146:	08 95       	ret

00001148 <__divmodhi4_neg1>:
    1148:	f6 f7       	brtc	.-4      	; 0x1146 <__divmodhi4_exit>
    114a:	90 95       	com	r25
    114c:	81 95       	neg	r24
    114e:	9f 4f       	sbci	r25, 0xFF	; 255
    1150:	08 95       	ret

00001152 <__udivmodhi4>:
    1152:	aa 1b       	sub	r26, r26
    1154:	bb 1b       	sub	r27, r27
    1156:	51 e1       	ldi	r21, 0x11	; 17
    1158:	07 c0       	rjmp	.+14     	; 0x1168 <__udivmodhi4_ep>

0000115a <__udivmodhi4_loop>:
    115a:	aa 1f       	adc	r26, r26
    115c:	bb 1f       	adc	r27, r27
    115e:	a6 17       	cp	r26, r22
    1160:	b7 07       	cpc	r27, r23
    1162:	10 f0       	brcs	.+4      	; 0x1168 <__udivmodhi4_ep>
    1164:	a6 1b       	sub	r26, r22
    1166:	b7 0b       	sbc	r27, r23

00001168 <__udivmodhi4_ep>:
    1168:	88 1f       	adc	r24, r24
    116a:	99 1f       	adc	r25, r25
    116c:	5a 95       	dec	r21
    116e:	a9 f7       	brne	.-22     	; 0x115a <__udivmodhi4_loop>
    1170:	80 95       	com	r24
    1172:	90 95       	com	r25
    1174:	bc 01       	movw	r22, r24
    1176:	cd 01       	movw	r24, r26
    1178:	08 95       	ret

0000117a <__prologue_saves__>:
    117a:	2f 92       	push	r2
    117c:	3f 92       	push	r3
    117e:	4f 92       	push	r4
    1180:	5f 92       	push	r5
    1182:	6f 92       	push	r6
    1184:	7f 92       	push	r7
    1186:	8f 92       	push	r8
    1188:	9f 92       	push	r9
    118a:	af 92       	push	r10
    118c:	bf 92       	push	r11
    118e:	cf 92       	push	r12
    1190:	df 92       	push	r13
    1192:	ef 92       	push	r14
    1194:	ff 92       	push	r15
    1196:	0f 93       	push	r16
    1198:	1f 93       	push	r17
    119a:	cf 93       	push	r28
    119c:	df 93       	push	r29
    119e:	cd b7       	in	r28, 0x3d	; 61
    11a0:	de b7       	in	r29, 0x3e	; 62
    11a2:	ca 1b       	sub	r28, r26
    11a4:	db 0b       	sbc	r29, r27
    11a6:	0f b6       	in	r0, 0x3f	; 63
    11a8:	f8 94       	cli
    11aa:	de bf       	out	0x3e, r29	; 62
    11ac:	0f be       	out	0x3f, r0	; 63
    11ae:	cd bf       	out	0x3d, r28	; 61
    11b0:	09 94       	ijmp

000011b2 <__epilogue_restores__>:
    11b2:	2a 88       	ldd	r2, Y+18	; 0x12
    11b4:	39 88       	ldd	r3, Y+17	; 0x11
    11b6:	48 88       	ldd	r4, Y+16	; 0x10
    11b8:	5f 84       	ldd	r5, Y+15	; 0x0f
    11ba:	6e 84       	ldd	r6, Y+14	; 0x0e
    11bc:	7d 84       	ldd	r7, Y+13	; 0x0d
    11be:	8c 84       	ldd	r8, Y+12	; 0x0c
    11c0:	9b 84       	ldd	r9, Y+11	; 0x0b
    11c2:	aa 84       	ldd	r10, Y+10	; 0x0a
    11c4:	b9 84       	ldd	r11, Y+9	; 0x09
    11c6:	c8 84       	ldd	r12, Y+8	; 0x08
    11c8:	df 80       	ldd	r13, Y+7	; 0x07
    11ca:	ee 80       	ldd	r14, Y+6	; 0x06
    11cc:	fd 80       	ldd	r15, Y+5	; 0x05
    11ce:	0c 81       	ldd	r16, Y+4	; 0x04
    11d0:	1b 81       	ldd	r17, Y+3	; 0x03
    11d2:	aa 81       	ldd	r26, Y+2	; 0x02
    11d4:	b9 81       	ldd	r27, Y+1	; 0x01
    11d6:	ce 0f       	add	r28, r30
    11d8:	d1 1d       	adc	r29, r1
    11da:	0f b6       	in	r0, 0x3f	; 63
    11dc:	f8 94       	cli
    11de:	de bf       	out	0x3e, r29	; 62
    11e0:	0f be       	out	0x3f, r0	; 63
    11e2:	cd bf       	out	0x3d, r28	; 61
    11e4:	ed 01       	movw	r28, r26
    11e6:	08 95       	ret

000011e8 <round>:
    11e8:	50 d0       	rcall	.+160    	; 0x128a <__fp_splitA>
    11ea:	e0 f0       	brcs	.+56     	; 0x1224 <round+0x3c>
    11ec:	9e 37       	cpi	r25, 0x7E	; 126
    11ee:	d8 f0       	brcs	.+54     	; 0x1226 <round+0x3e>
    11f0:	96 39       	cpi	r25, 0x96	; 150
    11f2:	b8 f4       	brcc	.+46     	; 0x1222 <round+0x3a>
    11f4:	9e 38       	cpi	r25, 0x8E	; 142
    11f6:	48 f4       	brcc	.+18     	; 0x120a <round+0x22>
    11f8:	67 2f       	mov	r22, r23
    11fa:	78 2f       	mov	r23, r24
    11fc:	88 27       	eor	r24, r24
    11fe:	98 5f       	subi	r25, 0xF8	; 248
    1200:	f9 cf       	rjmp	.-14     	; 0x11f4 <round+0xc>
    1202:	86 95       	lsr	r24
    1204:	77 95       	ror	r23
    1206:	67 95       	ror	r22
    1208:	93 95       	inc	r25
    120a:	95 39       	cpi	r25, 0x95	; 149
    120c:	d0 f3       	brcs	.-12     	; 0x1202 <round+0x1a>
    120e:	b6 2f       	mov	r27, r22
    1210:	b1 70       	andi	r27, 0x01	; 1
    1212:	6b 0f       	add	r22, r27
    1214:	71 1d       	adc	r23, r1
    1216:	81 1d       	adc	r24, r1
    1218:	20 f4       	brcc	.+8      	; 0x1222 <round+0x3a>
    121a:	87 95       	ror	r24
    121c:	77 95       	ror	r23
    121e:	67 95       	ror	r22
    1220:	93 95       	inc	r25
    1222:	02 c0       	rjmp	.+4      	; 0x1228 <__fp_mintl>
    1224:	1c c0       	rjmp	.+56     	; 0x125e <__fp_mpack>
    1226:	4c c0       	rjmp	.+152    	; 0x12c0 <__fp_szero>

00001228 <__fp_mintl>:
    1228:	88 23       	and	r24, r24
    122a:	71 f4       	brne	.+28     	; 0x1248 <__fp_mintl+0x20>
    122c:	77 23       	and	r23, r23
    122e:	21 f0       	breq	.+8      	; 0x1238 <__fp_mintl+0x10>
    1230:	98 50       	subi	r25, 0x08	; 8
    1232:	87 2b       	or	r24, r23
    1234:	76 2f       	mov	r23, r22
    1236:	07 c0       	rjmp	.+14     	; 0x1246 <__fp_mintl+0x1e>
    1238:	66 23       	and	r22, r22
    123a:	11 f4       	brne	.+4      	; 0x1240 <__fp_mintl+0x18>
    123c:	99 27       	eor	r25, r25
    123e:	0d c0       	rjmp	.+26     	; 0x125a <__fp_mintl+0x32>
    1240:	90 51       	subi	r25, 0x10	; 16
    1242:	86 2b       	or	r24, r22
    1244:	70 e0       	ldi	r23, 0x00	; 0
    1246:	60 e0       	ldi	r22, 0x00	; 0
    1248:	2a f0       	brmi	.+10     	; 0x1254 <__fp_mintl+0x2c>
    124a:	9a 95       	dec	r25
    124c:	66 0f       	add	r22, r22
    124e:	77 1f       	adc	r23, r23
    1250:	88 1f       	adc	r24, r24
    1252:	da f7       	brpl	.-10     	; 0x124a <__fp_mintl+0x22>
    1254:	88 0f       	add	r24, r24
    1256:	96 95       	lsr	r25
    1258:	87 95       	ror	r24
    125a:	97 f9       	bld	r25, 7
    125c:	08 95       	ret

0000125e <__fp_mpack>:
    125e:	9f 3f       	cpi	r25, 0xFF	; 255
    1260:	31 f0       	breq	.+12     	; 0x126e <__fp_mpack_finite+0xc>

00001262 <__fp_mpack_finite>:
    1262:	91 50       	subi	r25, 0x01	; 1
    1264:	20 f4       	brcc	.+8      	; 0x126e <__fp_mpack_finite+0xc>
    1266:	87 95       	ror	r24
    1268:	77 95       	ror	r23
    126a:	67 95       	ror	r22
    126c:	b7 95       	ror	r27
    126e:	88 0f       	add	r24, r24
    1270:	91 1d       	adc	r25, r1
    1272:	96 95       	lsr	r25
    1274:	87 95       	ror	r24
    1276:	97 f9       	bld	r25, 7
    1278:	08 95       	ret

0000127a <__fp_split3>:
    127a:	57 fd       	sbrc	r21, 7
    127c:	90 58       	subi	r25, 0x80	; 128
    127e:	44 0f       	add	r20, r20
    1280:	55 1f       	adc	r21, r21
    1282:	59 f0       	breq	.+22     	; 0x129a <__fp_splitA+0x10>
    1284:	5f 3f       	cpi	r21, 0xFF	; 255
    1286:	71 f0       	breq	.+28     	; 0x12a4 <__fp_splitA+0x1a>
    1288:	47 95       	ror	r20

0000128a <__fp_splitA>:
    128a:	88 0f       	add	r24, r24
    128c:	97 fb       	bst	r25, 7
    128e:	99 1f       	adc	r25, r25
    1290:	61 f0       	breq	.+24     	; 0x12aa <__fp_splitA+0x20>
    1292:	9f 3f       	cpi	r25, 0xFF	; 255
    1294:	79 f0       	breq	.+30     	; 0x12b4 <__fp_splitA+0x2a>
    1296:	87 95       	ror	r24
    1298:	08 95       	ret
    129a:	12 16       	cp	r1, r18
    129c:	13 06       	cpc	r1, r19
    129e:	14 06       	cpc	r1, r20
    12a0:	55 1f       	adc	r21, r21
    12a2:	f2 cf       	rjmp	.-28     	; 0x1288 <__fp_split3+0xe>
    12a4:	46 95       	lsr	r20
    12a6:	f1 df       	rcall	.-30     	; 0x128a <__fp_splitA>
    12a8:	08 c0       	rjmp	.+16     	; 0x12ba <__fp_splitA+0x30>
    12aa:	16 16       	cp	r1, r22
    12ac:	17 06       	cpc	r1, r23
    12ae:	18 06       	cpc	r1, r24
    12b0:	99 1f       	adc	r25, r25
    12b2:	f1 cf       	rjmp	.-30     	; 0x1296 <__fp_splitA+0xc>
    12b4:	86 95       	lsr	r24
    12b6:	71 05       	cpc	r23, r1
    12b8:	61 05       	cpc	r22, r1
    12ba:	08 94       	sec
    12bc:	08 95       	ret

000012be <__fp_zero>:
    12be:	e8 94       	clt

000012c0 <__fp_szero>:
    12c0:	bb 27       	eor	r27, r27
    12c2:	66 27       	eor	r22, r22
    12c4:	77 27       	eor	r23, r23
    12c6:	cb 01       	movw	r24, r22
    12c8:	97 f9       	bld	r25, 7
    12ca:	08 95       	ret

000012cc <_exit>:
    12cc:	f8 94       	cli

000012ce <__stop_program>:
    12ce:	ff cf       	rjmp	.-2      	; 0x12ce <__stop_program>
