
Styr.elf:     file format elf32-avr

Sections:
Idx Name          Size      VMA       LMA       File off  Algn
  0 .text         000006ee  00000000  00000000  00000094  2**1
                  CONTENTS, ALLOC, LOAD, READONLY, CODE
  1 .data         00000002  00800060  000006ee  00000782  2**0
                  CONTENTS, ALLOC, LOAD, DATA
  2 .bss          0000001a  00800062  00800062  00000784  2**0
                  ALLOC
  3 .debug_aranges 000000c0  00000000  00000000  00000784  2**0
                  CONTENTS, READONLY, DEBUGGING
  4 .debug_pubnames 000003a9  00000000  00000000  00000844  2**0
                  CONTENTS, READONLY, DEBUGGING
  5 .debug_info   00000927  00000000  00000000  00000bed  2**0
                  CONTENTS, READONLY, DEBUGGING
  6 .debug_abbrev 000002eb  00000000  00000000  00001514  2**0
                  CONTENTS, READONLY, DEBUGGING
  7 .debug_line   00000a13  00000000  00000000  000017ff  2**0
                  CONTENTS, READONLY, DEBUGGING
  8 .debug_frame  00000210  00000000  00000000  00002214  2**2
                  CONTENTS, READONLY, DEBUGGING
  9 .debug_str    00000302  00000000  00000000  00002424  2**0
                  CONTENTS, READONLY, DEBUGGING
 10 .debug_loc    0000030f  00000000  00000000  00002726  2**0
                  CONTENTS, READONLY, DEBUGGING

Disassembly of section .text:

00000000 <__vectors>:
   0:	0c 94 2a 00 	jmp	0x54	; 0x54 <__ctors_end>
   4:	0c 94 c8 01 	jmp	0x390	; 0x390 <__vector_1>
   8:	0c 94 9e 01 	jmp	0x33c	; 0x33c <__vector_2>
   c:	0c 94 47 00 	jmp	0x8e	; 0x8e <__bad_interrupt>
  10:	0c 94 47 00 	jmp	0x8e	; 0x8e <__bad_interrupt>
  14:	0c 94 47 00 	jmp	0x8e	; 0x8e <__bad_interrupt>
  18:	0c 94 47 00 	jmp	0x8e	; 0x8e <__bad_interrupt>
  1c:	0c 94 47 00 	jmp	0x8e	; 0x8e <__bad_interrupt>
  20:	0c 94 47 00 	jmp	0x8e	; 0x8e <__bad_interrupt>
  24:	0c 94 47 00 	jmp	0x8e	; 0x8e <__bad_interrupt>
  28:	0c 94 ec 01 	jmp	0x3d8	; 0x3d8 <__vector_10>
  2c:	0c 94 47 00 	jmp	0x8e	; 0x8e <__bad_interrupt>
  30:	0c 94 47 00 	jmp	0x8e	; 0x8e <__bad_interrupt>
  34:	0c 94 47 00 	jmp	0x8e	; 0x8e <__bad_interrupt>
  38:	0c 94 47 00 	jmp	0x8e	; 0x8e <__bad_interrupt>
  3c:	0c 94 47 00 	jmp	0x8e	; 0x8e <__bad_interrupt>
  40:	0c 94 47 00 	jmp	0x8e	; 0x8e <__bad_interrupt>
  44:	0c 94 47 00 	jmp	0x8e	; 0x8e <__bad_interrupt>
  48:	0c 94 47 00 	jmp	0x8e	; 0x8e <__bad_interrupt>
  4c:	0c 94 47 00 	jmp	0x8e	; 0x8e <__bad_interrupt>
  50:	0c 94 47 00 	jmp	0x8e	; 0x8e <__bad_interrupt>

00000054 <__ctors_end>:
  54:	11 24       	eor	r1, r1
  56:	1f be       	out	0x3f, r1	; 63
  58:	cf e5       	ldi	r28, 0x5F	; 95
  5a:	d4 e0       	ldi	r29, 0x04	; 4
  5c:	de bf       	out	0x3e, r29	; 62
  5e:	cd bf       	out	0x3d, r28	; 61

00000060 <__do_copy_data>:
  60:	10 e0       	ldi	r17, 0x00	; 0
  62:	a0 e6       	ldi	r26, 0x60	; 96
  64:	b0 e0       	ldi	r27, 0x00	; 0
  66:	ee ee       	ldi	r30, 0xEE	; 238
  68:	f6 e0       	ldi	r31, 0x06	; 6
  6a:	02 c0       	rjmp	.+4      	; 0x70 <.do_copy_data_start>

0000006c <.do_copy_data_loop>:
  6c:	05 90       	lpm	r0, Z+
  6e:	0d 92       	st	X+, r0

00000070 <.do_copy_data_start>:
  70:	a2 36       	cpi	r26, 0x62	; 98
  72:	b1 07       	cpc	r27, r17
  74:	d9 f7       	brne	.-10     	; 0x6c <.do_copy_data_loop>

00000076 <__do_clear_bss>:
  76:	10 e0       	ldi	r17, 0x00	; 0
  78:	a2 e6       	ldi	r26, 0x62	; 98
  7a:	b0 e0       	ldi	r27, 0x00	; 0
  7c:	01 c0       	rjmp	.+2      	; 0x80 <.do_clear_bss_start>

0000007e <.do_clear_bss_loop>:
  7e:	1d 92       	st	X+, r1

00000080 <.do_clear_bss_start>:
  80:	ac 37       	cpi	r26, 0x7C	; 124
  82:	b1 07       	cpc	r27, r17
  84:	e1 f7       	brne	.-8      	; 0x7e <.do_clear_bss_loop>
  86:	0e 94 c8 00 	call	0x190	; 0x190 <main>
  8a:	0c 94 75 03 	jmp	0x6ea	; 0x6ea <_exit>

0000008e <__bad_interrupt>:
  8e:	0c 94 00 00 	jmp	0	; 0x0 <__vectors>

00000092 <distance_regulator>:
 *              v√§rde som ska styra motorer (-70 --- 70)
 *-----------------------------------------------------------------------------*/
signed char distance_regulator(unsigned char left_front, unsigned char left_back,
                unsigned char right_front, unsigned char right_back)
{
		speed = 120;
  92:	98 e7       	ldi	r25, 0x78	; 120
  94:	90 93 60 00 	sts	0x0060, r25

        signed char difference_left = (left_front - 1) - left_back;
		//signed char difference_right = (right_front - 1) - right_back;
		signed char difference_left_right = left_front - right_front;

		outvalue = Kp*(difference_left);               // P-delen
  98:	e8 2f       	mov	r30, r24
  9a:	e1 50       	subi	r30, 0x01	; 1
  9c:	e6 1b       	sub	r30, r22
  9e:	ff 27       	eor	r31, r31
  a0:	e7 fd       	sbrc	r30, 7
  a2:	f0 95       	com	r31
		outvalue += Kd*(difference_left - old_distance_left);      // D-delen
  a4:	20 91 62 00 	lds	r18, 0x0062
  a8:	30 91 63 00 	lds	r19, 0x0063
  ac:	bf 01       	movw	r22, r30
  ae:	62 1b       	sub	r22, r18
  b0:	73 0b       	sbc	r23, r19
  b2:	96 2f       	mov	r25, r22
  b4:	99 0f       	add	r25, r25
  b6:	99 0f       	add	r25, r25
  b8:	99 0f       	add	r25, r25
		old_distance_left = difference_left;
  ba:	f0 93 63 00 	sts	0x0063, r31
  be:	e0 93 62 00 	sts	0x0062, r30

		outvalue += Ka*(difference_left_right);
  c2:	9f 01       	movw	r18, r30
  c4:	22 0f       	add	r18, r18
  c6:	33 1f       	adc	r19, r19
  c8:	2e 0f       	add	r18, r30
  ca:	3f 1f       	adc	r19, r31
  cc:	92 0f       	add	r25, r18
  ce:	84 1b       	sub	r24, r20
  d0:	98 0f       	add	r25, r24
  d2:	94 3c       	cpi	r25, 0xC4	; 196
  d4:	0c f4       	brge	.+2      	; 0xd8 <distance_regulator+0x46>
  d6:	94 ec       	ldi	r25, 0xC4	; 196
  d8:	89 2f       	mov	r24, r25
  da:	9d 33       	cpi	r25, 0x3D	; 61
  dc:	0c f0       	brlt	.+2      	; 0xe0 <distance_regulator+0x4e>
  de:	8c e3       	ldi	r24, 0x3C	; 60
                outvalue = 60;
        } else if(outvalue < -60){
                outvalue = -60;
        }
        return outvalue;
}
  e0:	08 95       	ret

000000e2 <line_regulator>:
 *	   	new_value v√§rde att reglera p√•
 *  	output: 
 *              v√§rde som ska styra motorer (-70 --- 70)
 *-----------------------------------------------------------------------------*/
signed char line_regulator(signed char new_value)
{
  e2:	78 2f       	mov	r23, r24
        int Kp = 1;
		speed = 104;
  e4:	88 e6       	ldi	r24, 0x68	; 104
  e6:	80 93 60 00 	sts	0x0060, r24
        signed char outvalue;

        //Kollar om roboten r√∂r sig √•t h√∂ger eller v√§nster
        if(new_value > old_line){
  ea:	47 2f       	mov	r20, r23
  ec:	55 27       	eor	r21, r21
  ee:	47 fd       	sbrc	r20, 7
  f0:	50 95       	com	r21
  f2:	80 91 64 00 	lds	r24, 0x0064
  f6:	90 91 65 00 	lds	r25, 0x0065
  fa:	84 17       	cp	r24, r20
  fc:	95 07       	cpc	r25, r21
  fe:	1c f4       	brge	.+6      	; 0x106 <line_regulator+0x24>
                angle = -1; // roboten g√•r √•t h√∂ger
 100:	8f ef       	ldi	r24, 0xFF	; 255
 102:	9f ef       	ldi	r25, 0xFF	; 255
 104:	05 c0       	rjmp	.+10     	; 0x110 <line_regulator+0x2e>
        } else if(new_value < old_line){
 106:	48 17       	cp	r20, r24
 108:	59 07       	cpc	r21, r25
 10a:	34 f4       	brge	.+12     	; 0x118 <line_regulator+0x36>
                angle = 1; // roboten g√•r √•t v√§nster
 10c:	81 e0       	ldi	r24, 0x01	; 1
 10e:	90 e0       	ldi	r25, 0x00	; 0
 110:	90 93 67 00 	sts	0x0067, r25
 114:	80 93 66 00 	sts	0x0066, r24
        }
		outvalue = (Kp*new_value) >> 2;
 118:	ca 01       	movw	r24, r20
 11a:	95 95       	asr	r25
 11c:	87 95       	ror	r24
 11e:	95 95       	asr	r25
 120:	87 95       	ror	r24
 122:	68 2f       	mov	r22, r24
        switch(angle){
 124:	20 91 66 00 	lds	r18, 0x0066
 128:	30 91 67 00 	lds	r19, 0x0067
 12c:	ef ef       	ldi	r30, 0xFF	; 255
 12e:	2f 3f       	cpi	r18, 0xFF	; 255
 130:	3e 07       	cpc	r19, r30
 132:	51 f0       	breq	.+20     	; 0x148 <line_regulator+0x66>
 134:	21 30       	cpi	r18, 0x01	; 1
 136:	31 05       	cpc	r19, r1
 138:	11 f0       	breq	.+4      	; 0x13e <line_regulator+0x5c>
 13a:	87 2f       	mov	r24, r23
 13c:	12 c0       	rjmp	.+36     	; 0x162 <line_regulator+0x80>
                case 1:                      
					    if(new_value < 0){   // roboten g√•r √•t v√§nster och √§r p√• 
 13e:	77 fd       	sbrc	r23, 7
 140:	0d c0       	rjmp	.+26     	; 0x15c <line_regulator+0x7a>
                                             // v√§nstra sidan om tejpen
                                outvalue += (Kp*new_value) >> 2;
						} else if (new_value >= 90){
 142:	7a 35       	cpi	r23, 0x5A	; 90
 144:	6c f4       	brge	.+26     	; 0x160 <line_regulator+0x7e>
 146:	04 c0       	rjmp	.+8      	; 0x150 <line_regulator+0x6e>
                                             // h√∂gra sidan om tejpen
                                outvalue -= (Kp*new_value) >> 1;
                        }
                        break;
                case -1: 
						if(new_value <= -90){
 148:	77 3a       	cpi	r23, 0xA7	; 167
 14a:	54 f0       	brlt	.+20     	; 0x160 <line_regulator+0x7e>
								outvalue = 0;
                        } else if(new_value <= 0){   // roboten g√•r √•t h√∂ger och √§r p√• 
 14c:	17 16       	cp	r1, r23
 14e:	34 f0       	brlt	.+12     	; 0x15c <line_regulator+0x7a>
                                             // v√§nstra sidan om tejpen
                                outvalue -= (Kp*new_value) >> 1;
 150:	ca 01       	movw	r24, r20
 152:	95 95       	asr	r25
 154:	87 95       	ror	r24
 156:	68 1b       	sub	r22, r24
 158:	86 2f       	mov	r24, r22
 15a:	03 c0       	rjmp	.+6      	; 0x162 <line_regulator+0x80>
                        } else{              // roboten g√•r √•t h√∂ger och √§r p√•
                                             // h√∂gra sidan om tejpen
                                outvalue += (Kp*new_value) >> 2;
 15c:	86 0f       	add	r24, r22
 15e:	01 c0       	rjmp	.+2      	; 0x162 <line_regulator+0x80>
 160:	80 e0       	ldi	r24, 0x00	; 0
                default:
                        outvalue = Kp*new_value;
                        break;
        }

        old_line = new_value;
 162:	50 93 65 00 	sts	0x0065, r21
 166:	40 93 64 00 	sts	0x0064, r20
 16a:	8a 3b       	cpi	r24, 0xBA	; 186
 16c:	0c f4       	brge	.+2      	; 0x170 <line_regulator+0x8e>
 16e:	8a eb       	ldi	r24, 0xBA	; 186
 170:	87 34       	cpi	r24, 0x47	; 71
 172:	0c f0       	brlt	.+2      	; 0x176 <line_regulator+0x94>
 174:	86 e4       	ldi	r24, 0x46	; 70
        } else if(outvalue < -70){
                outvalue = -70;
        }

        return outvalue;
}
 176:	08 95       	ret

00000178 <drive_engines>:
 *  drive_engines styr motorerna beroende p√• value
 *      input: 
 *              value, v√§rde att reglera p√•
 *-----------------------------------------------------------------------------*/
void drive_engines(signed char value)
{
 178:	90 91 60 00 	lds	r25, 0x0060
        if(value > 0){
 17c:	18 16       	cp	r1, r24
 17e:	24 f4       	brge	.+8      	; 0x188 <drive_engines+0x10>
                OCR2 = speed - value; // V√§nstermotor
 180:	29 2f       	mov	r18, r25
 182:	28 1b       	sub	r18, r24
 184:	23 bd       	out	0x23, r18	; 35
 186:	02 c0       	rjmp	.+4      	; 0x18c <drive_engines+0x14>
                OCR0 = speed; // + value; // H√∂germotor
        } else {
                value = -value;

                OCR2 = speed; //+ value; // V√§nstermotor
 188:	93 bd       	out	0x23, r25	; 35
                OCR0 = speed - value; // H√∂germotor
 18a:	98 0f       	add	r25, r24
 18c:	9c bf       	out	0x3c, r25	; 60
 18e:	08 95       	ret

00000190 <main>:


int main(void){


		DDRB |= (1<<DDB6); //1=ut bit7=SCLK,1 bit6=MISO,0 bit5=MOSI bit4=SS
 190:	be 9a       	sbi	0x17, 6	; 23
		SPCR |= (1<<SPIE) | (1<<SPE);  
 192:	8d b1       	in	r24, 0x0d	; 13
 194:	80 6c       	ori	r24, 0xC0	; 192
 196:	8d b9       	out	0x0d, r24	; 13
		//bit7 SPI interrupt enable bit6 SPI enable bit5 LSB first bit4 slave 
		//bit3:2 SPI-mode 3, bit1:0 gˆr inget
		DDRD |= (1<<DDD6); 	//REQ
 198:	8e 9a       	sbi	0x11, 6	; 17
		MCUCR |= (1<<ISC00) | (1<<ISC11);	//interrupt n‰r man drar i spaken
 19a:	85 b7       	in	r24, 0x35	; 53
 19c:	89 60       	ori	r24, 0x09	; 9
 19e:	85 bf       	out	0x35, r24	; 53
										//eller n‰r man sl‰pper knappen
		GICR |= (1<<INT0) | (1<<INT1);	//tillÂt spaken att fungerar
 1a0:	8b b7       	in	r24, 0x3b	; 59
 1a2:	80 6c       	ori	r24, 0xC0	; 192
 1a4:	8b bf       	out	0x3b, r24	; 59
		decide_mode();
 1a6:	0e 94 b2 01 	call	0x364	; 0x364 <decide_mode>
		init();				//init motorer
 1aa:	0e 94 bf 02 	call	0x57e	; 0x57e <init>

		SREG = (SREG | 0x80);  //TillÂt globala interrupts
 1ae:	8f b7       	in	r24, 0x3f	; 63
 1b0:	80 68       	ori	r24, 0x80	; 128
 1b2:	8f bf       	out	0x3f, r24	; 63
		

		while (a<255) {
				a++;
				if (a>254) {
						a = 1;
 1b4:	21 e0       	ldi	r18, 0x01	; 1
 1b6:	30 e0       	ldi	r19, 0x00	; 0
 1b8:	14 c0       	rjmp	.+40     	; 0x1e2 <main+0x52>
		SREG = (SREG | 0x80);  //TillÂt globala interrupts
		
		

		while (a<255) {
				a++;
 1ba:	80 91 68 00 	lds	r24, 0x0068
 1be:	90 91 69 00 	lds	r25, 0x0069
 1c2:	01 96       	adiw	r24, 0x01	; 1
 1c4:	90 93 69 00 	sts	0x0069, r25
 1c8:	80 93 68 00 	sts	0x0068, r24
				if (a>254) {
 1cc:	80 91 68 00 	lds	r24, 0x0068
 1d0:	90 91 69 00 	lds	r25, 0x0069
 1d4:	8f 3f       	cpi	r24, 0xFF	; 255
 1d6:	91 05       	cpc	r25, r1
 1d8:	24 f0       	brlt	.+8      	; 0x1e2 <main+0x52>
						a = 1;
 1da:	30 93 69 00 	sts	0x0069, r19
 1de:	20 93 68 00 	sts	0x0068, r18

		SREG = (SREG | 0x80);  //TillÂt globala interrupts
		
		

		while (a<255) {
 1e2:	80 91 68 00 	lds	r24, 0x0068
 1e6:	90 91 69 00 	lds	r25, 0x0069
 1ea:	8f 3f       	cpi	r24, 0xFF	; 255
 1ec:	91 05       	cpc	r25, r1
 1ee:	2c f3       	brlt	.-54     	; 0x1ba <main+0x2a>
						
				}
		}
		

}
 1f0:	80 e0       	ldi	r24, 0x00	; 0
 1f2:	90 e0       	ldi	r25, 0x00	; 0
 1f4:	08 95       	ret

000001f6 <special_help>:
 *			*			stop
 *	med hastighet speed i tiden time*1024 klockpulser
 */
void special_help(int time, unsigned char speed, unsigned char command)
{
		OCR1A = time;                  // st√§ller in klockan p√• 1 sek
 1f6:	9b bd       	out	0x2b, r25	; 43
 1f8:	8a bd       	out	0x2a, r24	; 42
        TCCR1B = (1<<CS12) | (1<<CS10);  //prescaler p√• 16-bits klocka till 1024 
 1fa:	85 e0       	ldi	r24, 0x05	; 5
 1fc:	8e bd       	out	0x2e, r24	; 46
                                                        // och startar klockan
        if(command == 0){
 1fe:	44 23       	and	r20, r20
 200:	21 f4       	brne	.+8      	; 0x20a <special_help+0x14>
			forward(speed);
 202:	86 2f       	mov	r24, r22
 204:	0e 94 69 03 	call	0x6d2	; 0x6d2 <forward>
 208:	0f c0       	rjmp	.+30     	; 0x228 <special_help+0x32>
		} else if(command == 1){
 20a:	41 30       	cpi	r20, 0x01	; 1
 20c:	21 f4       	brne	.+8      	; 0x216 <special_help+0x20>
			rotate_left(speed);
 20e:	86 2f       	mov	r24, r22
 210:	0e 94 43 03 	call	0x686	; 0x686 <rotate_left>
 214:	09 c0       	rjmp	.+18     	; 0x228 <special_help+0x32>
		} else if(command == 2){
 216:	42 30       	cpi	r20, 0x02	; 2
 218:	21 f4       	brne	.+8      	; 0x222 <special_help+0x2c>
			rotate_right(speed);
 21a:	86 2f       	mov	r24, r22
 21c:	0e 94 37 03 	call	0x66e	; 0x66e <rotate_right>
 220:	03 c0       	rjmp	.+6      	; 0x228 <special_help+0x32>
		} else{
			stop(speed);
 222:	86 2f       	mov	r24, r22
 224:	0e 94 cd 02 	call	0x59a	; 0x59a <stop>
		}

        while(!(TIFR & (1<<OCF1A))){    // V√§nta tills klockan r√§knat klart
 228:	08 b6       	in	r0, 0x38	; 56
 22a:	04 fe       	sbrs	r0, 4
 22c:	fd cf       	rjmp	.-6      	; 0x228 <special_help+0x32>
                               ;  
        }
        stop(0);
 22e:	80 e0       	ldi	r24, 0x00	; 0
 230:	0e 94 cd 02 	call	0x59a	; 0x59a <stop>
        TCCR1B = (0<<CS12) | (0<<CS11) | (0<<CS10); //Stanna klockan
 234:	1e bc       	out	0x2e, r1	; 46
        TCNT1 = 0;                      //Nollst√§ll klockan
 236:	1d bc       	out	0x2d, r1	; 45
 238:	1c bc       	out	0x2c, r1	; 44
		TIFR = 0x10;					// Nollst√§ll avbrottsflagga
 23a:	80 e1       	ldi	r24, 0x10	; 16
 23c:	88 bf       	out	0x38, r24	; 56
		return;
}
 23e:	08 95       	ret

00000240 <straight>:

}

int straight(unsigned char dist_left_front, unsigned char dist_left_back, unsigned char dist_right_front, unsigned char dist_right_back)
{
		signed char difference_left = ((dist_left_front -1) - dist_left_back);
 240:	38 2f       	mov	r19, r24
 242:	36 1b       	sub	r19, r22
 244:	93 2f       	mov	r25, r19
 246:	91 50       	subi	r25, 0x01	; 1
		signed char difference_right = (dist_right_front - dist_right_back);

		if(dist_left_front < 40){
 248:	88 32       	cpi	r24, 0x28	; 40
 24a:	40 f4       	brcc	.+16     	; 0x25c <straight+0x1c>
				if(difference_left < 2 && difference_left > -2){
 24c:	33 30       	cpi	r19, 0x03	; 3
 24e:	48 f1       	brcs	.+82     	; 0x2a2 <straight+0x62>
						return 0;
				} else if (difference_left < 0){
 250:	97 ff       	sbrs	r25, 7
 252:	02 c0       	rjmp	.+4      	; 0x258 <straight+0x18>
						unsigned char left_cm = - difference_left;
						special_help(left_cm << 3, 0x07,2);     // Rotera hˆger
 254:	91 95       	neg	r25
 256:	1b c0       	rjmp	.+54     	; 0x28e <straight+0x4e>
						return 1;
				} else {
						unsigned char left_cm = difference_left;
						special_help(left_cm << 3, 0x07,1);     // Rotera v√§nster
 258:	89 2f       	mov	r24, r25
 25a:	0c c0       	rjmp	.+24     	; 0x274 <straight+0x34>
						return 1;
				}
		} else if(dist_right_front < 40){
 25c:	48 32       	cpi	r20, 0x28	; 40
 25e:	08 f5       	brcc	.+66     	; 0x2a2 <straight+0x62>
}

int straight(unsigned char dist_left_front, unsigned char dist_left_back, unsigned char dist_right_front, unsigned char dist_right_back)
{
		signed char difference_left = ((dist_left_front -1) - dist_left_back);
		signed char difference_right = (dist_right_front - dist_right_back);
 260:	42 1b       	sub	r20, r18
 262:	24 2f       	mov	r18, r20
						unsigned char left_cm = difference_left;
						special_help(left_cm << 3, 0x07,1);     // Rotera v√§nster
						return 1;
				}
		} else if(dist_right_front < 40){
				if(difference_right < 2 && difference_right > -2){
 264:	84 2f       	mov	r24, r20
 266:	8f 5f       	subi	r24, 0xFF	; 255
 268:	83 30       	cpi	r24, 0x03	; 3
 26a:	d8 f0       	brcs	.+54     	; 0x2a2 <straight+0x62>
						return 0;
				} else if (difference_right < 0){
 26c:	47 ff       	sbrs	r20, 7
 26e:	0f c0       	rjmp	.+30     	; 0x28e <straight+0x4e>
						unsigned char right_cm = - difference_right;
						special_help(right_cm << 3, 0x07,1);     // Rotera hˆger
 270:	21 95       	neg	r18
 272:	82 2f       	mov	r24, r18
 274:	90 e0       	ldi	r25, 0x00	; 0
 276:	33 e0       	ldi	r19, 0x03	; 3
 278:	88 0f       	add	r24, r24
 27a:	99 1f       	adc	r25, r25
 27c:	3a 95       	dec	r19
 27e:	e1 f7       	brne	.-8      	; 0x278 <straight+0x38>
 280:	67 e0       	ldi	r22, 0x07	; 7
 282:	41 e0       	ldi	r20, 0x01	; 1
 284:	0e 94 fb 00 	call	0x1f6	; 0x1f6 <special_help>
 288:	21 e0       	ldi	r18, 0x01	; 1
 28a:	30 e0       	ldi	r19, 0x00	; 0
 28c:	0c c0       	rjmp	.+24     	; 0x2a6 <straight+0x66>
						return 1;
				} else {
						unsigned char right_cm = difference_left;
						special_help(right_cm << 3, 0x07,2);     // Rotera v√§nster
 28e:	89 2f       	mov	r24, r25
 290:	90 e0       	ldi	r25, 0x00	; 0
 292:	23 e0       	ldi	r18, 0x03	; 3
 294:	88 0f       	add	r24, r24
 296:	99 1f       	adc	r25, r25
 298:	2a 95       	dec	r18
 29a:	e1 f7       	brne	.-8      	; 0x294 <straight+0x54>
 29c:	67 e0       	ldi	r22, 0x07	; 7
 29e:	42 e0       	ldi	r20, 0x02	; 2
 2a0:	f1 cf       	rjmp	.-30     	; 0x284 <straight+0x44>
						return 1;
 2a2:	20 e0       	ldi	r18, 0x00	; 0
 2a4:	30 e0       	ldi	r19, 0x00	; 0
				}
		} else {
			return 0;
		}			
}
 2a6:	c9 01       	movw	r24, r18
 2a8:	08 95       	ret

000002aa <specialkommando>:
{
		
        //unsigned char kommando_kod = 0x40;//data & 0xE0;
	

		if(0x40 == kommando_kod)
 2aa:	80 34       	cpi	r24, 0x40	; 64
 2ac:	89 f4       	brne	.+34     	; 0x2d0 <specialkommando+0x26>
                        F√∂rslag: sl√• p√• timer och l√•t roboten k√∂ra rakt fram <tid>,
                        rotera v√§nster <tid>, k√∂r fram <tid>. jag tror det √§r enklast
                        att anv√§nda flaggan f√∂r uppfyllt tidskrav h√§r (man v√§ntar p√•
                        att den √§r lika med 1)
                        */
                        special_help(0x2600, 0x08, 0);    // K√∂r fram i en sekund
 2ae:	80 e0       	ldi	r24, 0x00	; 0
 2b0:	96 e2       	ldi	r25, 0x26	; 38
 2b2:	68 e0       	ldi	r22, 0x08	; 8
 2b4:	40 e0       	ldi	r20, 0x00	; 0
 2b6:	0e 94 fb 00 	call	0x1f6	; 0x1f6 <special_help>
                        special_help(0x0F00, 0, 3); 	  // Stanna i en kort stund
 2ba:	80 e0       	ldi	r24, 0x00	; 0
 2bc:	9f e0       	ldi	r25, 0x0F	; 15
 2be:	60 e0       	ldi	r22, 0x00	; 0
 2c0:	43 e0       	ldi	r20, 0x03	; 3
 2c2:	0e 94 fb 00 	call	0x1f6	; 0x1f6 <special_help>
                        special_help(0x1800, 0x07,1);     // Rotera v√§nster ca en 1/3 sekund
 2c6:	80 e0       	ldi	r24, 0x00	; 0
 2c8:	98 e1       	ldi	r25, 0x18	; 24
 2ca:	67 e0       	ldi	r22, 0x07	; 7
 2cc:	41 e0       	ldi	r20, 0x01	; 1
 2ce:	12 c0       	rjmp	.+36     	; 0x2f4 <specialkommando+0x4a>
                        special_help(0x3200, 0x08, 0);    // K√∂r fram i en sekund
                        special_help(0x2000, 0, 3);   
                        return;

		}
		else if(0x60==kommando_kod)
 2d0:	80 36       	cpi	r24, 0x60	; 96
 2d2:	29 f5       	brne	.+74     	; 0x31e <specialkommando+0x74>
		{
                        //sv√§ng h√∂ger 90 grader
                        special_help(0x2600, 0x08, 0);    // K√∂r fram i en sekund
 2d4:	80 e0       	ldi	r24, 0x00	; 0
 2d6:	96 e2       	ldi	r25, 0x26	; 38
 2d8:	68 e0       	ldi	r22, 0x08	; 8
 2da:	40 e0       	ldi	r20, 0x00	; 0
 2dc:	0e 94 fb 00 	call	0x1f6	; 0x1f6 <special_help>
                        special_help(0x0F00, 0, 3); 	  // Stanna i en kort stund
 2e0:	80 e0       	ldi	r24, 0x00	; 0
 2e2:	9f e0       	ldi	r25, 0x0F	; 15
 2e4:	60 e0       	ldi	r22, 0x00	; 0
 2e6:	43 e0       	ldi	r20, 0x03	; 3
 2e8:	0e 94 fb 00 	call	0x1f6	; 0x1f6 <special_help>
                        special_help(0x1800, 0x07,2);     // Rotera h√∂ger ca en 1/3 sekund
 2ec:	80 e0       	ldi	r24, 0x00	; 0
 2ee:	98 e1       	ldi	r25, 0x18	; 24
 2f0:	67 e0       	ldi	r22, 0x07	; 7
 2f2:	42 e0       	ldi	r20, 0x02	; 2
 2f4:	0e 94 fb 00 	call	0x1f6	; 0x1f6 <special_help>
                        special_help(0x0F00, 0, 3);       // Stanna i en kort stund
 2f8:	80 e0       	ldi	r24, 0x00	; 0
 2fa:	9f e0       	ldi	r25, 0x0F	; 15
 2fc:	60 e0       	ldi	r22, 0x00	; 0
 2fe:	43 e0       	ldi	r20, 0x03	; 3
 300:	0e 94 fb 00 	call	0x1f6	; 0x1f6 <special_help>
                        special_help(0x3200, 0x08, 0);    // K√∂r fram i en sekund
 304:	80 e0       	ldi	r24, 0x00	; 0
 306:	92 e3       	ldi	r25, 0x32	; 50
 308:	68 e0       	ldi	r22, 0x08	; 8
 30a:	40 e0       	ldi	r20, 0x00	; 0
 30c:	0e 94 fb 00 	call	0x1f6	; 0x1f6 <special_help>
                        special_help(0x2000, 0, 3);   
 310:	80 e0       	ldi	r24, 0x00	; 0
 312:	90 e2       	ldi	r25, 0x20	; 32
 314:	60 e0       	ldi	r22, 0x00	; 0
 316:	43 e0       	ldi	r20, 0x03	; 3
 318:	0e 94 fb 00 	call	0x1f6	; 0x1f6 <special_help>
 31c:	08 95       	ret
                        return;
		}
		else if(0x20==kommando_kod)
 31e:	80 32       	cpi	r24, 0x20	; 32
 320:	61 f4       	brne	.+24     	; 0x33a <specialkommando+0x90>
		{
                        //k√∂r rakt fram
                        special_help(0x5200, 0x08, 0);    // K√∂r fram i ett tag (ca 2 sek)
 322:	80 e0       	ldi	r24, 0x00	; 0
 324:	92 e5       	ldi	r25, 0x52	; 82
 326:	68 e0       	ldi	r22, 0x08	; 8
 328:	40 e0       	ldi	r20, 0x00	; 0
 32a:	0e 94 fb 00 	call	0x1f6	; 0x1f6 <special_help>
                        special_help(0x2000, 0, 3);   	  // Stanna
 32e:	80 e0       	ldi	r24, 0x00	; 0
 330:	90 e2       	ldi	r25, 0x20	; 32
 332:	60 e0       	ldi	r22, 0x00	; 0
 334:	43 e0       	ldi	r20, 0x03	; 3
 336:	0e 94 fb 00 	call	0x1f6	; 0x1f6 <special_help>
 33a:	08 95       	ret

0000033c <__vector_2>:
		decide_mode();
}


ISR(INT1_vect)
{
 33c:	1f 92       	push	r1
 33e:	0f 92       	push	r0
 340:	0f b6       	in	r0, 0x3f	; 63
 342:	0f 92       	push	r0
 344:	11 24       	eor	r1, r1
 346:	8f 93       	push	r24
				start=1;
 348:	81 e0       	ldi	r24, 0x01	; 1
 34a:	80 93 6e 00 	sts	0x006E, r24
}
 34e:	8f 91       	pop	r24
 350:	0f 90       	pop	r0
 352:	0f be       	out	0x3f, r0	; 63
 354:	0f 90       	pop	r0
 356:	1f 90       	pop	r1
 358:	18 95       	reti

0000035a <req_sending>:


void req_sending()
{
		SPDR= header;
 35a:	80 91 6d 00 	lds	r24, 0x006D
 35e:	8f b9       	out	0x0f, r24	; 15
		PORTD |= (1<<PD6); //skicka req
 360:	96 9a       	sbi	0x12, 6	; 18
}
 362:	08 95       	ret

00000364 <decide_mode>:


void decide_mode()
{
		if(0x04==(PIND & 0x04)){
 364:	82 9b       	sbis	0x10, 2	; 16
 366:	0a c0       	rjmp	.+20     	; 0x37c <decide_mode+0x18>
				auto_mode=1;
 368:	81 e0       	ldi	r24, 0x01	; 1
 36a:	90 e0       	ldi	r25, 0x00	; 0
 36c:	90 93 6b 00 	sts	0x006B, r25
 370:	80 93 6a 00 	sts	0x006A, r24
				stop(0x00);
 374:	80 e0       	ldi	r24, 0x00	; 0
 376:	0e 94 cd 02 	call	0x59a	; 0x59a <stop>
 37a:	08 95       	ret

		}
		else if(0x00==(PIND & 0x04)){
 37c:	82 99       	sbic	0x10, 2	; 16
 37e:	07 c0       	rjmp	.+14     	; 0x38e <decide_mode+0x2a>
				auto_mode=0;
 380:	10 92 6b 00 	sts	0x006B, r1
 384:	10 92 6a 00 	sts	0x006A, r1
				stop(0x00);
 388:	80 e0       	ldi	r24, 0x00	; 0
 38a:	0e 94 cd 02 	call	0x59a	; 0x59a <stop>
 38e:	08 95       	ret

00000390 <__vector_1>:
				tolka_data();

}

ISR(INT0_vect)
{
 390:	1f 92       	push	r1
 392:	0f 92       	push	r0
 394:	0f b6       	in	r0, 0x3f	; 63
 396:	0f 92       	push	r0
 398:	11 24       	eor	r1, r1
 39a:	2f 93       	push	r18
 39c:	3f 93       	push	r19
 39e:	4f 93       	push	r20
 3a0:	5f 93       	push	r21
 3a2:	6f 93       	push	r22
 3a4:	7f 93       	push	r23
 3a6:	8f 93       	push	r24
 3a8:	9f 93       	push	r25
 3aa:	af 93       	push	r26
 3ac:	bf 93       	push	r27
 3ae:	ef 93       	push	r30
 3b0:	ff 93       	push	r31
		decide_mode();
 3b2:	0e 94 b2 01 	call	0x364	; 0x364 <decide_mode>
}
 3b6:	ff 91       	pop	r31
 3b8:	ef 91       	pop	r30
 3ba:	bf 91       	pop	r27
 3bc:	af 91       	pop	r26
 3be:	9f 91       	pop	r25
 3c0:	8f 91       	pop	r24
 3c2:	7f 91       	pop	r23
 3c4:	6f 91       	pop	r22
 3c6:	5f 91       	pop	r21
 3c8:	4f 91       	pop	r20
 3ca:	3f 91       	pop	r19
 3cc:	2f 91       	pop	r18
 3ce:	0f 90       	pop	r0
 3d0:	0f be       	out	0x3f, r0	; 63
 3d2:	0f 90       	pop	r0
 3d4:	1f 90       	pop	r1
 3d6:	18 95       	reti

000003d8 <__vector_10>:
#include "styr_tolka_data.h"
#include "motor_styrning.h"


ISR(SPI_STC_vect) //sensor REQ
{
 3d8:	1f 92       	push	r1
 3da:	0f 92       	push	r0
 3dc:	0f b6       	in	r0, 0x3f	; 63
 3de:	0f 92       	push	r0
 3e0:	11 24       	eor	r1, r1
 3e2:	2f 93       	push	r18
 3e4:	3f 93       	push	r19
 3e6:	4f 93       	push	r20
 3e8:	5f 93       	push	r21
 3ea:	6f 93       	push	r22
 3ec:	7f 93       	push	r23
 3ee:	8f 93       	push	r24
 3f0:	9f 93       	push	r25
 3f2:	af 93       	push	r26
 3f4:	bf 93       	push	r27
 3f6:	ef 93       	push	r30
 3f8:	ff 93       	push	r31
		

	
				PORTD &= ~(1<<PD6); 	//REQ low
 3fa:	96 98       	cbi	0x12, 6	; 18
				header=SPDR;		//spara mottagen header
 3fc:	8f b1       	in	r24, 0x0f	; 15
 3fe:	80 93 6d 00 	sts	0x006D, r24
				SPDR=data;			//V?lj data f?r n?sta ?verf?ring
 402:	80 91 6c 00 	lds	r24, 0x006C
 406:	8f b9       	out	0x0f, r24	; 15
				PORTD |= (1<<PD6); 	//REQ high
 408:	96 9a       	sbi	0x12, 6	; 18
				
				while(!(SPSR & (1<<SPIF))){
 40a:	77 9b       	sbis	0x0e, 7	; 14
 40c:	fe cf       	rjmp	.-4      	; 0x40a <__vector_10+0x32>
				;
				}
				PORTD &= ~(1<<PD6); 	//REQ low
 40e:	96 98       	cbi	0x12, 6	; 18
				
				data=SPDR;			//spara mottagen data
 410:	8f b1       	in	r24, 0x0f	; 15
 412:	80 93 6c 00 	sts	0x006C, r24
				SPDR=0x00;
 416:	1f b8       	out	0x0f, r1	; 15
			
			
				tolka_data();
 418:	0e 94 1f 02 	call	0x43e	; 0x43e <tolka_data>

}
 41c:	ff 91       	pop	r31
 41e:	ef 91       	pop	r30
 420:	bf 91       	pop	r27
 422:	af 91       	pop	r26
 424:	9f 91       	pop	r25
 426:	8f 91       	pop	r24
 428:	7f 91       	pop	r23
 42a:	6f 91       	pop	r22
 42c:	5f 91       	pop	r21
 42e:	4f 91       	pop	r20
 430:	3f 91       	pop	r19
 432:	2f 91       	pop	r18
 434:	0f 90       	pop	r0
 436:	0f be       	out	0x3f, r0	; 63
 438:	0f 90       	pop	r0
 43a:	1f 90       	pop	r1
 43c:	18 95       	reti

0000043e <tolka_data>:
unsigned char dist_left_front, dist_left_back, dist_right_front;
unsigned char count;
int done_with_special_command;

void tolka_data()
{
 43e:	cf 93       	push	r28
 440:	df 93       	push	r29
		
		if(auto_mode==1)						//autonom
 442:	c0 91 6a 00 	lds	r28, 0x006A
 446:	d0 91 6b 00 	lds	r29, 0x006B
 44a:	c1 30       	cpi	r28, 0x01	; 1
 44c:	d1 05       	cpc	r29, r1
 44e:	09 f0       	breq	.+2      	; 0x452 <tolka_data+0x14>
 450:	42 c0       	rjmp	.+132    	; 0x4d6 <__stack+0x77>
		{
				if(0x02==(header & 0x02))		//D-flagga=1?
 452:	80 91 6d 00 	lds	r24, 0x006D
 456:	90 e0       	ldi	r25, 0x00	; 0
 458:	81 ff       	sbrs	r24, 1
 45a:	0a c0       	rjmp	.+20     	; 0x470 <__stack+0x11>
				{
						specialkommando(data & 0xE0);
 45c:	80 91 6c 00 	lds	r24, 0x006C
 460:	80 7e       	andi	r24, 0xE0	; 224
 462:	0e 94 55 01 	call	0x2aa	; 0x2aa <specialkommando>
						done_with_special_command = 1;
 466:	d0 93 71 00 	sts	0x0071, r29
 46a:	c0 93 70 00 	sts	0x0070, r28
 46e:	84 c0       	rjmp	.+264    	; 0x578 <__stack+0x119>
				}
				else if(0x11==(header & 0x11)){		//linjel√§ge
 470:	81 71       	andi	r24, 0x11	; 17
 472:	90 70       	andi	r25, 0x00	; 0
 474:	81 31       	cpi	r24, 0x11	; 17
 476:	91 05       	cpc	r25, r1
 478:	29 f4       	brne	.+10     	; 0x484 <__stack+0x25>
						drive_engines(line_regulator(data));
 47a:	80 91 6c 00 	lds	r24, 0x006C
 47e:	0e 94 71 00 	call	0xe2	; 0xe2 <line_regulator>
 482:	26 c0       	rjmp	.+76     	; 0x4d0 <__stack+0x71>
				}
				else if(0x01==(header & 0x11)){		//avst√•ndsl√§ge
 484:	01 97       	sbiw	r24, 0x01	; 1
 486:	09 f0       	breq	.+2      	; 0x48a <__stack+0x2b>
 488:	77 c0       	rjmp	.+238    	; 0x578 <__stack+0x119>
						if(0x80==(data & 0x80)){
 48a:	20 91 6c 00 	lds	r18, 0x006C
 48e:	80 91 74 00 	lds	r24, 0x0074
 492:	27 ff       	sbrs	r18, 7
 494:	05 c0       	rjmp	.+10     	; 0x4a0 <__stack+0x41>
								dist_left_front= 0x7F & data;
 496:	2f 77       	andi	r18, 0x7F	; 127
 498:	20 93 75 00 	sts	0x0075, r18
								count++;
 49c:	8f 5f       	subi	r24, 0xFF	; 255
 49e:	05 c0       	rjmp	.+10     	; 0x4aa <__stack+0x4b>
						} else {
								if (count==1){
 4a0:	81 30       	cpi	r24, 0x01	; 1
 4a2:	31 f4       	brne	.+12     	; 0x4b0 <__stack+0x51>
										dist_left_back=data;
 4a4:	20 93 73 00 	sts	0x0073, r18
										count++;
 4a8:	82 e0       	ldi	r24, 0x02	; 2
 4aa:	80 93 74 00 	sts	0x0074, r24
 4ae:	64 c0       	rjmp	.+200    	; 0x578 <__stack+0x119>
								} else if(count==2){
 4b0:	82 30       	cpi	r24, 0x02	; 2
 4b2:	21 f4       	brne	.+8      	; 0x4bc <__stack+0x5d>
										dist_right_front=data;
 4b4:	20 93 72 00 	sts	0x0072, r18
										count++;
 4b8:	83 e0       	ldi	r24, 0x03	; 3
 4ba:	f7 cf       	rjmp	.-18     	; 0x4aa <__stack+0x4b>
										count=0;								
										done_with_special_command = straight(dist_left_front, dist_left_back, 
										dist_right_front, data);
								}*/ 
								else {
										count=0;
 4bc:	10 92 74 00 	sts	0x0074, r1
										drive_engines(distance_regulator(
 4c0:	80 91 75 00 	lds	r24, 0x0075
 4c4:	60 91 73 00 	lds	r22, 0x0073
 4c8:	40 91 72 00 	lds	r20, 0x0072
 4cc:	0e 94 49 00 	call	0x92	; 0x92 <distance_regulator>
 4d0:	0e 94 bc 00 	call	0x178	; 0x178 <drive_engines>
 4d4:	51 c0       	rjmp	.+162    	; 0x578 <__stack+0x119>
										dist_right_front, data));
								}
						}
				}
		}
		else if(auto_mode==0 && (header & 0x01) == 0)				//fj√§rrstyrd
 4d6:	cd 2b       	or	r28, r29
 4d8:	09 f0       	breq	.+2      	; 0x4dc <__stack+0x7d>
 4da:	4e c0       	rjmp	.+156    	; 0x578 <__stack+0x119>
 4dc:	80 91 6d 00 	lds	r24, 0x006D
 4e0:	80 fd       	sbrc	r24, 0
 4e2:	4a c0       	rjmp	.+148    	; 0x578 <__stack+0x119>
		{
				kommando=(data & 0xF0);
 4e4:	80 91 6c 00 	lds	r24, 0x006C
 4e8:	98 2f       	mov	r25, r24
 4ea:	90 7f       	andi	r25, 0xF0	; 240
 4ec:	90 93 6f 00 	sts	0x006F, r25

				if(0x00==kommando)
 4f0:	99 23       	and	r25, r25
 4f2:	21 f4       	brne	.+8      	; 0x4fc <__stack+0x9d>
				{
						stop(data & 0x0F);
 4f4:	8f 70       	andi	r24, 0x0F	; 15
 4f6:	0e 94 cd 02 	call	0x59a	; 0x59a <stop>
 4fa:	3e c0       	rjmp	.+124    	; 0x578 <__stack+0x119>
				}
				else if(0x10==kommando)
 4fc:	90 31       	cpi	r25, 0x10	; 16
 4fe:	21 f4       	brne	.+8      	; 0x508 <__stack+0xa9>
				{
						forward(data & 0x0F);
 500:	8f 70       	andi	r24, 0x0F	; 15
 502:	0e 94 69 03 	call	0x6d2	; 0x6d2 <forward>
 506:	38 c0       	rjmp	.+112    	; 0x578 <__stack+0x119>
				}
				else if(0x20==kommando)
 508:	90 32       	cpi	r25, 0x20	; 32
 50a:	21 f4       	brne	.+8      	; 0x514 <__stack+0xb5>
				{
						forward_left(data & 0x0F);
 50c:	8f 70       	andi	r24, 0x0F	; 15
 50e:	0e 94 5c 03 	call	0x6b8	; 0x6b8 <forward_left>
 512:	32 c0       	rjmp	.+100    	; 0x578 <__stack+0x119>
				}
				else if(0x30==kommando)
 514:	90 33       	cpi	r25, 0x30	; 48
 516:	21 f4       	brne	.+8      	; 0x520 <__stack+0xc1>
				{
						forward_right(data & 0x0F);
 518:	8f 70       	andi	r24, 0x0F	; 15
 51a:	0e 94 4f 03 	call	0x69e	; 0x69e <forward_right>
 51e:	2c c0       	rjmp	.+88     	; 0x578 <__stack+0x119>
				}
				else if(0x40==kommando)
 520:	90 34       	cpi	r25, 0x40	; 64
 522:	21 f4       	brne	.+8      	; 0x52c <__stack+0xcd>
				{
						rotate_left(data & 0x0F);
 524:	8f 70       	andi	r24, 0x0F	; 15
 526:	0e 94 43 03 	call	0x686	; 0x686 <rotate_left>
 52a:	26 c0       	rjmp	.+76     	; 0x578 <__stack+0x119>
				}
				else if(0x50==kommando)
 52c:	90 35       	cpi	r25, 0x50	; 80
 52e:	21 f4       	brne	.+8      	; 0x538 <__stack+0xd9>
				{
						rotate_right(data & 0x0F);
 530:	8f 70       	andi	r24, 0x0F	; 15
 532:	0e 94 37 03 	call	0x66e	; 0x66e <rotate_right>
 536:	20 c0       	rjmp	.+64     	; 0x578 <__stack+0x119>
				}
				else if(0x60==kommando)
 538:	90 36       	cpi	r25, 0x60	; 96
 53a:	21 f4       	brne	.+8      	; 0x544 <__stack+0xe5>
				{
						back(data & 0x0F);
 53c:	8f 70       	andi	r24, 0x0F	; 15
 53e:	0e 94 29 03 	call	0x652	; 0x652 <back>
 542:	1a c0       	rjmp	.+52     	; 0x578 <__stack+0x119>
				}
				else if(0x70==kommando)
 544:	90 37       	cpi	r25, 0x70	; 112
 546:	21 f4       	brne	.+8      	; 0x550 <__stack+0xf1>
				{
						set_speed_left(data & 0x0F);
 548:	8f 70       	andi	r24, 0x0F	; 15
 54a:	0e 94 20 03 	call	0x640	; 0x640 <set_speed_left>
 54e:	14 c0       	rjmp	.+40     	; 0x578 <__stack+0x119>
				}
				else if(0x80==kommando)
 550:	90 38       	cpi	r25, 0x80	; 128
 552:	21 f4       	brne	.+8      	; 0x55c <__stack+0xfd>
				{
						set_speed_right(data & 0x0F);
 554:	8f 70       	andi	r24, 0x0F	; 15
 556:	0e 94 17 03 	call	0x62e	; 0x62e <set_speed_right>
 55a:	0e c0       	rjmp	.+28     	; 0x578 <__stack+0x119>
				}
				else if(0x90==kommando)			//Trim-funktionerna ska k√∂ras en g√•ng, sedan skall f√∂reg√•ende kommando forts√§tta.
 55c:	90 39       	cpi	r25, 0x90	; 144
 55e:	19 f4       	brne	.+6      	; 0x566 <__stack+0x107>
				{
						trim_left();
 560:	0e 94 d0 02 	call	0x5a0	; 0x5a0 <trim_left>
 564:	09 c0       	rjmp	.+18     	; 0x578 <__stack+0x119>
				}
				else if(0xA0==kommando)
 566:	90 3a       	cpi	r25, 0xA0	; 160
 568:	19 f4       	brne	.+6      	; 0x570 <__stack+0x111>
				{
						trim_right();
 56a:	0e 94 de 02 	call	0x5bc	; 0x5bc <trim_right>
 56e:	04 c0       	rjmp	.+8      	; 0x578 <__stack+0x119>
				}
				else if(0xB0==kommando)
 570:	90 3b       	cpi	r25, 0xB0	; 176
 572:	11 f4       	brne	.+4      	; 0x578 <__stack+0x119>
				{
						trim_zero();
 574:	0e 94 eb 02 	call	0x5d6	; 0x5d6 <trim_zero>
				}
		}

}
 578:	df 91       	pop	r29
 57a:	cf 91       	pop	r28
 57c:	08 95       	ret

0000057e <init>:
int trim;
int speed_right;
int speed_left;
void init()
 	{
			TCCR0 |= (1<<WGM00) | (1<<WGM01) | (1<<COM01) | (1<<CS00);
 57e:	83 b7       	in	r24, 0x33	; 51
 580:	89 66       	ori	r24, 0x69	; 105
 582:	83 bf       	out	0x33, r24	; 51
			TCCR2 |= (1<<WGM20) | (1<<WGM21) | (1<<COM21) | (1<<CS20);
 584:	85 b5       	in	r24, 0x25	; 37
 586:	89 66       	ori	r24, 0x69	; 105
 588:	85 bd       	out	0x25, r24	; 37
			DDRD |= (1<<DDD7) | (1<<DDD5) | (1<<DDD4);
 58a:	81 b3       	in	r24, 0x11	; 17
 58c:	80 6b       	ori	r24, 0xB0	; 176
 58e:	81 bb       	out	0x11, r24	; 17
			DDRB |= (1<<DDB3);
 590:	bb 9a       	sbi	0x17, 3	; 23
			PORTD &= 0xCF;
 592:	82 b3       	in	r24, 0x12	; 18
 594:	8f 7c       	andi	r24, 0xCF	; 207
 596:	82 bb       	out	0x12, r24	; 18
	}	
 598:	08 95       	ret

0000059a <stop>:


void stop(unsigned char speed)
 	{
		OCR0 = 0x00;
 59a:	1c be       	out	0x3c, r1	; 60
		OCR2 = 0x00;
 59c:	13 bc       	out	0x23, r1	; 35
	}
 59e:	08 95       	ret

000005a0 <trim_left>:
		PORTD &= 0xCF;	//st‰ller riktning framÂt
		OCR0 = (speed_right);		//höger
	}
void trim_left()		// ˆkar hˆger speed och minskar v‰nster speed med 1
	{
		if(trim>-16){
 5a0:	80 91 76 00 	lds	r24, 0x0076
 5a4:	90 91 77 00 	lds	r25, 0x0077
 5a8:	2f ef       	ldi	r18, 0xFF	; 255
 5aa:	81 3f       	cpi	r24, 0xF1	; 241
 5ac:	92 07       	cpc	r25, r18
 5ae:	2c f0       	brlt	.+10     	; 0x5ba <trim_left+0x1a>
			trim=trim-1;
 5b0:	01 97       	sbiw	r24, 0x01	; 1
 5b2:	90 93 77 00 	sts	0x0077, r25
 5b6:	80 93 76 00 	sts	0x0076, r24
 5ba:	08 95       	ret

000005bc <trim_right>:
		}
	}
void trim_right()		//ˆkar hˆger speed och minskar v‰nster speed med 1
	{
		if(trim<16){
 5bc:	80 91 76 00 	lds	r24, 0x0076
 5c0:	90 91 77 00 	lds	r25, 0x0077
 5c4:	80 31       	cpi	r24, 0x10	; 16
 5c6:	91 05       	cpc	r25, r1
 5c8:	2c f4       	brge	.+10     	; 0x5d4 <trim_right+0x18>
			trim=trim+1;
 5ca:	01 96       	adiw	r24, 0x01	; 1
 5cc:	90 93 77 00 	sts	0x0077, r25
 5d0:	80 93 76 00 	sts	0x0076, r24
 5d4:	08 95       	ret

000005d6 <trim_zero>:
		}
	}
void trim_zero()		//nollst‰ller trimning
	{
		trim=0;
 5d6:	10 92 77 00 	sts	0x0077, r1
 5da:	10 92 76 00 	sts	0x0076, r1
	}
 5de:	08 95       	ret

000005e0 <set_speed>:
void set_speed(unsigned char speed)
	{
		speed = (speed << 1);		// speed som kommer in ligger 0-F, dubblar det til 0-1E
 5e0:	88 0f       	add	r24, r24
		speed = 0x6A + speed;		// sätter lägsta hastigheten till 6A och högsta till 88
 5e2:	86 59       	subi	r24, 0x96	; 150
		if (trim > 0)
 5e4:	20 91 76 00 	lds	r18, 0x0076
 5e8:	30 91 77 00 	lds	r19, 0x0077
 5ec:	90 e0       	ldi	r25, 0x00	; 0
 5ee:	12 16       	cp	r1, r18
 5f0:	13 06       	cpc	r1, r19
 5f2:	7c f4       	brge	.+30     	; 0x612 <set_speed+0x32>
		{
			speed_right = speed - 1;			// sätter hastigheten för rak körning höger hjul
 5f4:	01 97       	sbiw	r24, 0x01	; 1
 5f6:	90 93 79 00 	sts	0x0079, r25
 5fa:	80 93 78 00 	sts	0x0078, r24
 5fe:	01 96       	adiw	r24, 0x01	; 1
			speed_left = speed + (2+trim);		// sätter hastigheten för rak körning vänser hjul
 600:	2e 5f       	subi	r18, 0xFE	; 254
 602:	3f 4f       	sbci	r19, 0xFF	; 255
 604:	28 0f       	add	r18, r24
 606:	39 1f       	adc	r19, r25
 608:	30 93 7b 00 	sts	0x007B, r19
 60c:	20 93 7a 00 	sts	0x007A, r18
 610:	08 95       	ret
		}
		else
		{
			speed_right = speed - (1+trim);		// sätter hastigheten för rak körning höger hjul
 612:	20 95       	com	r18
 614:	30 95       	com	r19
 616:	28 0f       	add	r18, r24
 618:	39 1f       	adc	r19, r25
 61a:	30 93 79 00 	sts	0x0079, r19
 61e:	20 93 78 00 	sts	0x0078, r18
			speed_left = speed + 2;				// sätter hastigheten för rak körning vänser hjul
 622:	02 96       	adiw	r24, 0x02	; 2
 624:	90 93 7b 00 	sts	0x007B, r25
 628:	80 93 7a 00 	sts	0x007A, r24
 62c:	08 95       	ret

0000062e <set_speed_right>:
		PORTD &= 0xCF;	//st‰ller riktning framÂt
		OCR2 = (speed_left);		//vänster
	}
void set_speed_right(unsigned char speed)
	{
		set_speed(speed);
 62e:	0e 94 f0 02 	call	0x5e0	; 0x5e0 <set_speed>
		PORTD &= 0xCF;	//st‰ller riktning framÂt
 632:	82 b3       	in	r24, 0x12	; 18
 634:	8f 7c       	andi	r24, 0xCF	; 207
 636:	82 bb       	out	0x12, r24	; 18
		OCR0 = (speed_right);		//höger
 638:	80 91 78 00 	lds	r24, 0x0078
 63c:	8c bf       	out	0x3c, r24	; 60
	}
 63e:	08 95       	ret

00000640 <set_speed_left>:
		OCR0 = (speed_right)+6;		//höger (med ökad hastighet då back inte är lika stark)
		OCR2 = (speed_left)+6;		//vänster
	}
void set_speed_left(unsigned char speed)
	{
		set_speed(speed);
 640:	0e 94 f0 02 	call	0x5e0	; 0x5e0 <set_speed>
		PORTD &= 0xCF;	//st‰ller riktning framÂt
 644:	82 b3       	in	r24, 0x12	; 18
 646:	8f 7c       	andi	r24, 0xCF	; 207
 648:	82 bb       	out	0x12, r24	; 18
		OCR2 = (speed_left);		//vänster
 64a:	80 91 7a 00 	lds	r24, 0x007A
 64e:	83 bd       	out	0x23, r24	; 35
	}
 650:	08 95       	ret

00000652 <back>:
		OCR2 = (speed_left);		//vänster
	}

void back(unsigned char speed)
	{	
		set_speed(speed);
 652:	0e 94 f0 02 	call	0x5e0	; 0x5e0 <set_speed>
		PORTD |= (1<<PD4) | (1<<PD5);
 656:	82 b3       	in	r24, 0x12	; 18
 658:	80 63       	ori	r24, 0x30	; 48
 65a:	82 bb       	out	0x12, r24	; 18
		OCR0 = (speed_right)+6;		//höger (med ökad hastighet då back inte är lika stark)
 65c:	80 91 78 00 	lds	r24, 0x0078
 660:	8a 5f       	subi	r24, 0xFA	; 250
 662:	8c bf       	out	0x3c, r24	; 60
		OCR2 = (speed_left)+6;		//vänster
 664:	80 91 7a 00 	lds	r24, 0x007A
 668:	8a 5f       	subi	r24, 0xFA	; 250
 66a:	83 bd       	out	0x23, r24	; 35
	}
 66c:	08 95       	ret

0000066e <rotate_right>:
		OCR2 = (speed_left)+6;		//vänster ökar hastigheten något på det hjulet som kör bakåt
	}

void rotate_right(unsigned char speed)
	{	
		set_speed(speed);
 66e:	0e 94 f0 02 	call	0x5e0	; 0x5e0 <set_speed>
		PORTD &= 0xDF;
 672:	95 98       	cbi	0x12, 5	; 18
		PORTD |= (1<<PD4);
 674:	94 9a       	sbi	0x12, 4	; 18
		OCR0 = (speed_right)+6;		//höger ökar hastigheten något på det hjulet som kör bakåt
 676:	80 91 78 00 	lds	r24, 0x0078
 67a:	8a 5f       	subi	r24, 0xFA	; 250
 67c:	8c bf       	out	0x3c, r24	; 60
		OCR2 = (speed_left);		//vänster
 67e:	80 91 7a 00 	lds	r24, 0x007A
 682:	83 bd       	out	0x23, r24	; 35
	}
 684:	08 95       	ret

00000686 <rotate_left>:
		OCR2 = (speed_left);		//vänster
	}

void rotate_left(unsigned char speed)
	{
		set_speed(speed);
 686:	0e 94 f0 02 	call	0x5e0	; 0x5e0 <set_speed>
		PORTD &= 0xEF;
 68a:	94 98       	cbi	0x12, 4	; 18
		PORTD |= (1<<PD5);
 68c:	95 9a       	sbi	0x12, 5	; 18
		OCR0 = (speed_right);		//höger 
 68e:	80 91 78 00 	lds	r24, 0x0078
 692:	8c bf       	out	0x3c, r24	; 60
		OCR2 = (speed_left)+6;		//vänster ökar hastigheten något på det hjulet som kör bakåt
 694:	80 91 7a 00 	lds	r24, 0x007A
 698:	8a 5f       	subi	r24, 0xFA	; 250
 69a:	83 bd       	out	0x23, r24	; 35
	}
 69c:	08 95       	ret

0000069e <forward_right>:
		OCR0 = (speed_right);		//höger
		OCR2 = (speed_left)-6;		//vänster
	}

void forward_right(unsigned char speed)
	{	set_speed(speed);
 69e:	0e 94 f0 02 	call	0x5e0	; 0x5e0 <set_speed>
		PORTD &= 0xCF;
 6a2:	82 b3       	in	r24, 0x12	; 18
 6a4:	8f 7c       	andi	r24, 0xCF	; 207
 6a6:	82 bb       	out	0x12, r24	; 18
		OCR0 = (speed_right)-6;		//höger
 6a8:	80 91 78 00 	lds	r24, 0x0078
 6ac:	86 50       	subi	r24, 0x06	; 6
 6ae:	8c bf       	out	0x3c, r24	; 60
		OCR2 = (speed_left);		//vänster
 6b0:	80 91 7a 00 	lds	r24, 0x007A
 6b4:	83 bd       	out	0x23, r24	; 35
	}
 6b6:	08 95       	ret

000006b8 <forward_left>:
		}
	}

void forward_left(unsigned char speed)
	{
		set_speed(speed);
 6b8:	0e 94 f0 02 	call	0x5e0	; 0x5e0 <set_speed>
		PORTD &= 0xCF;
 6bc:	82 b3       	in	r24, 0x12	; 18
 6be:	8f 7c       	andi	r24, 0xCF	; 207
 6c0:	82 bb       	out	0x12, r24	; 18
		OCR0 = (speed_right);		//höger
 6c2:	80 91 78 00 	lds	r24, 0x0078
 6c6:	8c bf       	out	0x3c, r24	; 60
		OCR2 = (speed_left)-6;		//vänster
 6c8:	80 91 7a 00 	lds	r24, 0x007A
 6cc:	86 50       	subi	r24, 0x06	; 6
 6ce:	83 bd       	out	0x23, r24	; 35
	}
 6d0:	08 95       	ret

000006d2 <forward>:
		OCR2 = 0x00;
	}

void forward(unsigned char speed)
	{
		set_speed(speed);
 6d2:	0e 94 f0 02 	call	0x5e0	; 0x5e0 <set_speed>
		PORTD &= 0xCF;	//st‰ller riktning framÂt
 6d6:	82 b3       	in	r24, 0x12	; 18
 6d8:	8f 7c       	andi	r24, 0xCF	; 207
 6da:	82 bb       	out	0x12, r24	; 18
			OCR0 = (speed_right);		//höger
			OCR2 = (speed_left);		//vänster
		}
		else
		{
			OCR0 = (speed_right);		//höger
 6dc:	80 91 78 00 	lds	r24, 0x0078
 6e0:	8c bf       	out	0x3c, r24	; 60
			OCR2 = (speed_left);		//vänster
 6e2:	80 91 7a 00 	lds	r24, 0x007A
 6e6:	83 bd       	out	0x23, r24	; 35
 6e8:	08 95       	ret

000006ea <_exit>:
 6ea:	f8 94       	cli

000006ec <__stop_program>:
 6ec:	ff cf       	rjmp	.-2      	; 0x6ec <__stop_program>
